

Microchip MPLAB XC8 Assembler V2.31 build 20201012212115 
                                                                                               Fri Feb 12 10:54:58 2021

Microchip MPLAB XC8 C Compiler v2.31 (Free license) build 20201012212115 Og1 
     1                           	processor	16F887
     2                           	pagewidth 120
     3                           	opt	flic
     4                           	psect	strings,global,class=STRING,delta=2,noexec
     5                           	psect	cinit,global,class=CODE,merge=1,delta=2
     6                           	psect	bssBANK0,global,class=BANK0,space=1,delta=1,noexec
     7                           	psect	bssBANK1,global,class=BANK1,space=1,delta=1,noexec
     8                           	psect	clrtext,global,class=CODE,delta=2
     9                           	psect	cstackCOMMON,global,class=COMMON,space=1,delta=1,noexec
    10                           	psect	cstackBANK0,global,class=BANK0,space=1,delta=1,noexec
    11                           	psect	maintext,global,class=CODE,split=1,delta=2
    12                           	psect	text1,local,class=CODE,merge=1,delta=2
    13                           	psect	text2,local,class=CODE,merge=1,delta=2
    14                           	psect	text3,local,class=CODE,merge=1,delta=2
    15                           	psect	text4,local,class=CODE,merge=1,delta=2
    16                           	psect	text5,local,class=CODE,merge=1,delta=2
    17                           	psect	text6,local,class=CODE,merge=1,delta=2
    18                           	psect	text7,local,class=CODE,merge=1,delta=2
    19                           	psect	text8,local,class=CODE,merge=1,delta=2
    20                           	psect	text9,local,class=CODE,merge=1,delta=2
    21                           	psect	text10,local,class=CODE,merge=1,delta=2,group=1
    22                           	psect	text11,local,class=CODE,merge=1,delta=2,group=1
    23                           	psect	text12,local,class=CODE,merge=1,delta=2,group=1
    24                           	psect	text13,local,class=CODE,merge=1,delta=2,group=1
    25                           	psect	text14,local,class=CODE,merge=1,delta=2
    26                           	psect	text15,local,class=CODE,merge=1,delta=2
    27                           	psect	config,global,abs,ovrld,class=CONFIG,space=4,delta=2,noexec
    28                           	dabs	1,0x7E,2
    29  0000                     
    30                           ; Version 2.20
    31                           ; Generated 12/02/2020 GMT
    32                           ; 
    33                           ; Copyright © 2020, Microchip Technology Inc. and its subsidiaries ("Microchip")
    34                           ; All rights reserved.
    35                           ; 
    36                           ; This software is developed by Microchip Technology Inc. and its subsidiaries ("Microch
      +                          ip").
    37                           ; 
    38                           ; Redistribution and use in source and binary forms, with or without modification, are
    39                           ; permitted provided that the following conditions are met:
    40                           ; 
    41                           ;     1. Redistributions of source code must retain the above copyright notice, this lis
      +                          t of
    42                           ;        conditions and the following disclaimer.
    43                           ; 
    44                           ;     2. Redistributions in binary form must reproduce the above copyright notice, this 
      +                          list
    45                           ;        of conditions and the following disclaimer in the documentation and/or other
    46                           ;        materials provided with the distribution.
    47                           ; 
    48                           ;     3. Microchip's name may not be used to endorse or promote products derived from th
      +                          is
    49                           ;        software without specific prior written permission.
    50                           ; 
    51                           ; THIS SOFTWARE IS PROVIDED BY MICROCHIP "AS IS" AND ANY EXPRESS OR IMPLIED WARRANTIES,
    52                           ; INCLUDING, BUT NOT LIMITED TO, THE IMPLIED WARRANTIES OF MERCHANTABILITY AND FITNESS F
      +                          OR
    53                           ; PURPOSE ARE DISCLAIMED.  IN NO EVENT SHALL MICROCHIP BE LIABLE FOR ANY DIRECT, INDIREC
      +                          T,
    54                           ; INCIDENTAL, SPECIAL, EXEMPLARY, OR CONSEQUENTIAL DAMAGES (INCLUDING BUT NOT LIMITED TO
    55                           ; PROCUREMENT OF SUBSTITUTE GOODS OR SERVICES; LOSS OF USE, DATA OR PROFITS; OR BUSINESS
    56                           ; INTERRUPTION) HOWSOEVER CAUSED AND ON ANY THEORY OF LIABILITY, WHETHER IN CONTRACT, ST
      +                          RICT
    57                           ; LIABILITY, OR TORT (INCLUDING NEGLIGENCE OR OTHERWISE) ARISING IN ANY WAY OUT OF THE U
      +                          SE OF
    58                           ; THIS SOFTWARE, EVEN IF ADVISED OF THE POSSIBILITY OF SUCH DAMAGE.
    59                           ; 
    60                           ; 
    61                           ; Code-generator required, PIC16F887 Definitions
    62                           ; 
    63                           ; SFR Addresses
    64  0000                     	;# 
    65  0001                     	;# 
    66  0002                     	;# 
    67  0003                     	;# 
    68  0004                     	;# 
    69  0005                     	;# 
    70  0006                     	;# 
    71  0007                     	;# 
    72  0008                     	;# 
    73  0009                     	;# 
    74  000A                     	;# 
    75  000B                     	;# 
    76  000C                     	;# 
    77  000D                     	;# 
    78  000E                     	;# 
    79  000E                     	;# 
    80  000F                     	;# 
    81  0010                     	;# 
    82  0011                     	;# 
    83  0012                     	;# 
    84  0013                     	;# 
    85  0014                     	;# 
    86  0015                     	;# 
    87  0015                     	;# 
    88  0016                     	;# 
    89  0017                     	;# 
    90  0018                     	;# 
    91  0019                     	;# 
    92  001A                     	;# 
    93  001B                     	;# 
    94  001B                     	;# 
    95  001C                     	;# 
    96  001D                     	;# 
    97  001E                     	;# 
    98  001F                     	;# 
    99  0081                     	;# 
   100  0085                     	;# 
   101  0086                     	;# 
   102  0087                     	;# 
   103  0088                     	;# 
   104  0089                     	;# 
   105  008C                     	;# 
   106  008D                     	;# 
   107  008E                     	;# 
   108  008F                     	;# 
   109  0090                     	;# 
   110  0091                     	;# 
   111  0092                     	;# 
   112  0093                     	;# 
   113  0093                     	;# 
   114  0093                     	;# 
   115  0094                     	;# 
   116  0095                     	;# 
   117  0096                     	;# 
   118  0097                     	;# 
   119  0098                     	;# 
   120  0099                     	;# 
   121  009A                     	;# 
   122  009B                     	;# 
   123  009C                     	;# 
   124  009D                     	;# 
   125  009E                     	;# 
   126  009F                     	;# 
   127  0105                     	;# 
   128  0107                     	;# 
   129  0108                     	;# 
   130  0109                     	;# 
   131  010C                     	;# 
   132  010C                     	;# 
   133  010D                     	;# 
   134  010E                     	;# 
   135  010F                     	;# 
   136  0185                     	;# 
   137  0187                     	;# 
   138  0188                     	;# 
   139  0189                     	;# 
   140  018C                     	;# 
   141  018D                     	;# 
   142  0000                     	;# 
   143  0001                     	;# 
   144  0002                     	;# 
   145  0003                     	;# 
   146  0004                     	;# 
   147  0005                     	;# 
   148  0006                     	;# 
   149  0007                     	;# 
   150  0008                     	;# 
   151  0009                     	;# 
   152  000A                     	;# 
   153  000B                     	;# 
   154  000C                     	;# 
   155  000D                     	;# 
   156  000E                     	;# 
   157  000E                     	;# 
   158  000F                     	;# 
   159  0010                     	;# 
   160  0011                     	;# 
   161  0012                     	;# 
   162  0013                     	;# 
   163  0014                     	;# 
   164  0015                     	;# 
   165  0015                     	;# 
   166  0016                     	;# 
   167  0017                     	;# 
   168  0018                     	;# 
   169  0019                     	;# 
   170  001A                     	;# 
   171  001B                     	;# 
   172  001B                     	;# 
   173  001C                     	;# 
   174  001D                     	;# 
   175  001E                     	;# 
   176  001F                     	;# 
   177  0081                     	;# 
   178  0085                     	;# 
   179  0086                     	;# 
   180  0087                     	;# 
   181  0088                     	;# 
   182  0089                     	;# 
   183  008C                     	;# 
   184  008D                     	;# 
   185  008E                     	;# 
   186  008F                     	;# 
   187  0090                     	;# 
   188  0091                     	;# 
   189  0092                     	;# 
   190  0093                     	;# 
   191  0093                     	;# 
   192  0093                     	;# 
   193  0094                     	;# 
   194  0095                     	;# 
   195  0096                     	;# 
   196  0097                     	;# 
   197  0098                     	;# 
   198  0099                     	;# 
   199  009A                     	;# 
   200  009B                     	;# 
   201  009C                     	;# 
   202  009D                     	;# 
   203  009E                     	;# 
   204  009F                     	;# 
   205  0105                     	;# 
   206  0107                     	;# 
   207  0108                     	;# 
   208  0109                     	;# 
   209  010C                     	;# 
   210  010C                     	;# 
   211  010D                     	;# 
   212  010E                     	;# 
   213  010F                     	;# 
   214  0185                     	;# 
   215  0187                     	;# 
   216  0188                     	;# 
   217  0189                     	;# 
   218  018C                     	;# 
   219  018D                     	;# 
   220  0000                     	;# 
   221  0001                     	;# 
   222  0002                     	;# 
   223  0003                     	;# 
   224  0004                     	;# 
   225  0005                     	;# 
   226  0006                     	;# 
   227  0007                     	;# 
   228  0008                     	;# 
   229  0009                     	;# 
   230  000A                     	;# 
   231  000B                     	;# 
   232  000C                     	;# 
   233  000D                     	;# 
   234  000E                     	;# 
   235  000E                     	;# 
   236  000F                     	;# 
   237  0010                     	;# 
   238  0011                     	;# 
   239  0012                     	;# 
   240  0013                     	;# 
   241  0014                     	;# 
   242  0015                     	;# 
   243  0015                     	;# 
   244  0016                     	;# 
   245  0017                     	;# 
   246  0018                     	;# 
   247  0019                     	;# 
   248  001A                     	;# 
   249  001B                     	;# 
   250  001B                     	;# 
   251  001C                     	;# 
   252  001D                     	;# 
   253  001E                     	;# 
   254  001F                     	;# 
   255  0081                     	;# 
   256  0085                     	;# 
   257  0086                     	;# 
   258  0087                     	;# 
   259  0088                     	;# 
   260  0089                     	;# 
   261  008C                     	;# 
   262  008D                     	;# 
   263  008E                     	;# 
   264  008F                     	;# 
   265  0090                     	;# 
   266  0091                     	;# 
   267  0092                     	;# 
   268  0093                     	;# 
   269  0093                     	;# 
   270  0093                     	;# 
   271  0094                     	;# 
   272  0095                     	;# 
   273  0096                     	;# 
   274  0097                     	;# 
   275  0098                     	;# 
   276  0099                     	;# 
   277  009A                     	;# 
   278  009B                     	;# 
   279  009C                     	;# 
   280  009D                     	;# 
   281  009E                     	;# 
   282  009F                     	;# 
   283  0105                     	;# 
   284  0107                     	;# 
   285  0108                     	;# 
   286  0109                     	;# 
   287  010C                     	;# 
   288  010C                     	;# 
   289  010D                     	;# 
   290  010E                     	;# 
   291  010F                     	;# 
   292  0185                     	;# 
   293  0187                     	;# 
   294  0188                     	;# 
   295  0189                     	;# 
   296  018C                     	;# 
   297  018D                     	;# 
   298  0000                     	;# 
   299  0001                     	;# 
   300  0002                     	;# 
   301  0003                     	;# 
   302  0004                     	;# 
   303  0005                     	;# 
   304  0006                     	;# 
   305  0007                     	;# 
   306  0008                     	;# 
   307  0009                     	;# 
   308  000A                     	;# 
   309  000B                     	;# 
   310  000C                     	;# 
   311  000D                     	;# 
   312  000E                     	;# 
   313  000E                     	;# 
   314  000F                     	;# 
   315  0010                     	;# 
   316  0011                     	;# 
   317  0012                     	;# 
   318  0013                     	;# 
   319  0014                     	;# 
   320  0015                     	;# 
   321  0015                     	;# 
   322  0016                     	;# 
   323  0017                     	;# 
   324  0018                     	;# 
   325  0019                     	;# 
   326  001A                     	;# 
   327  001B                     	;# 
   328  001B                     	;# 
   329  001C                     	;# 
   330  001D                     	;# 
   331  001E                     	;# 
   332  001F                     	;# 
   333  0081                     	;# 
   334  0085                     	;# 
   335  0086                     	;# 
   336  0087                     	;# 
   337  0088                     	;# 
   338  0089                     	;# 
   339  008C                     	;# 
   340  008D                     	;# 
   341  008E                     	;# 
   342  008F                     	;# 
   343  0090                     	;# 
   344  0091                     	;# 
   345  0092                     	;# 
   346  0093                     	;# 
   347  0093                     	;# 
   348  0093                     	;# 
   349  0094                     	;# 
   350  0095                     	;# 
   351  0096                     	;# 
   352  0097                     	;# 
   353  0098                     	;# 
   354  0099                     	;# 
   355  009A                     	;# 
   356  009B                     	;# 
   357  009C                     	;# 
   358  009D                     	;# 
   359  009E                     	;# 
   360  009F                     	;# 
   361  0105                     	;# 
   362  0107                     	;# 
   363  0108                     	;# 
   364  0109                     	;# 
   365  010C                     	;# 
   366  010C                     	;# 
   367  010D                     	;# 
   368  010E                     	;# 
   369  010F                     	;# 
   370  0185                     	;# 
   371  0187                     	;# 
   372  0188                     	;# 
   373  0189                     	;# 
   374  018C                     	;# 
   375  018D                     	;# 
   376  001E                     _ADRESH	set	30
   377  001F                     _ADCON0bits	set	31
   378  001F                     _ADCON0	set	31
   379  000B                     _INTCON	set	11
   380  000C                     _PIR1bits	set	12
   381  0009                     _PORTE	set	9
   382  0008                     _PORTD	set	8
   383  0007                     _PORTC	set	7
   384  0006                     _PORTB	set	6
   385  0005                     _PORTA	set	5
   386  0049                     _RE1	set	73
   387  0048                     _RE0	set	72
   388  009E                     _ADRESL	set	158
   389  009F                     _ADCON1	set	159
   390  0081                     _OPTION_REG	set	129
   391  008C                     _PIE1bits	set	140
   392  0089                     _TRISE	set	137
   393  0087                     _TRISC	set	135
   394  0086                     _TRISB	set	134
   395  0085                     _TRISA	set	133
   396  0088                     _TRISD	set	136
   397  0189                     _ANSELH	set	393
   398  0188                     _ANSEL	set	392
   399                           
   400                           	psect	strings
   401  0800                     __pstrings:
   402  0800                     stringtab:
   403  0800                     __stringtab:
   404  0800                     stringcode:	
   405                           ;	String table - string pointers are 1 byte each
   406                           
   407  0800                     stringdir:
   408  0800  3008               	movlw	high stringdir
   409  0801  008A               	movwf	10
   410  0802  0804               	movf	4,w
   411  0803  0A84               	incf	4,f
   412  0804  0782               	addwf	2,f
   413  0805                     __stringbase:
   414  0805  3400               	retlw	0
   415  0806                     __end_of__stringtab:
   416  0806                     STR_1:
   417  0806  3453               	retlw	83	;'S'
   418  0807  3431               	retlw	49	;'1'
   419  0808  343A               	retlw	58	;':'
   420  0809  3400               	retlw	0
   421  080A                     STR_2:
   422  080A  3453               	retlw	83	;'S'
   423  080B  3432               	retlw	50	;'2'
   424  080C  343A               	retlw	58	;':'
   425  080D  3400               	retlw	0
   426  080E                     STR_3:
   427  080E  3453               	retlw	83	;'S'
   428  080F  3433               	retlw	51	;'3'
   429  0810  343A               	retlw	58	;':'
   430  0811  3400               	retlw	0
   431                           
   432                           	psect	cinit
   433  07EB                     start_initialization:	
   434                           ; #config settings
   435                           
   436  07EB                     __initialization:
   437                           
   438                           ; Clear objects allocated to BANK0
   439  07EB  1383               	bcf	3,7	;select IRP bank0
   440  07EC  305B               	movlw	low __pbssBANK0
   441  07ED  0084               	movwf	4
   442  07EE  3063               	movlw	low (__pbssBANK0+8)
   443  07EF  120A  158A  27D1  120A  118A  	fcall	clear_ram0
   444                           
   445                           ; Clear objects allocated to BANK1
   446  07F4  30A0               	movlw	low __pbssBANK1
   447  07F5  0084               	movwf	4
   448  07F6  30B0               	movlw	low (__pbssBANK1+16)
   449  07F7  120A  158A  27D1  120A  118A  	fcall	clear_ram0
   450  07FC                     end_of_initialization:	
   451                           ;End of C runtime variable initialization code
   452                           
   453  07FC                     __end_of__initialization:
   454  07FC  0183               	clrf	3
   455  07FD  120A  118A  2921   	ljmp	_main	;jump to C main() function
   456                           
   457                           	psect	bssBANK0
   458  005B                     __pbssBANK0:
   459  005B                     _VAL1:
   460  005B                     	ds	4
   461  005F                     _channel:
   462  005F                     	ds	2
   463  0061                     _VALOR_ADC:
   464  0061                     	ds	1
   465  0062                     _ADC_res:
   466  0062                     	ds	1
   467                           
   468                           	psect	bssBANK1
   469  00A0                     __pbssBANK1:
   470  00A0                     _data:
   471  00A0                     	ds	16
   472                           
   473                           	psect	clrtext
   474  0FD1                     clear_ram0:	
   475                           ;	Called with FSR containing the base address, and
   476                           ;	W with the last address+1
   477                           
   478  0FD1  0064               	clrwdt	;clear the watchdog before getting into this loop
   479  0FD2                     clrloop0:
   480  0FD2  0180               	clrf	0	;clear RAM location pointed to by FSR
   481  0FD3  0A84               	incf	4,f	;increment pointer
   482  0FD4  0604               	xorwf	4,w	;XOR with final address
   483  0FD5  1903               	btfsc	3,2	;have we reached the end yet?
   484  0FD6  3400               	retlw	0	;all done for this memory range, return
   485  0FD7  0604               	xorwf	4,w	;XOR again to restore value
   486  0FD8  2FD2               	goto	clrloop0	;do the next byte
   487                           
   488                           	psect	cstackCOMMON
   489  0070                     __pcstackCOMMON:
   490  0070                     ?_setup:
   491  0070                     ??_setup:	
   492                           ; 1 bytes @ 0x0
   493                           
   494  0070                     ?_Lcd_Init:	
   495                           ; 1 bytes @ 0x0
   496                           
   497  0070                     ?_Lcd_Clear:	
   498                           ; 1 bytes @ 0x0
   499                           
   500  0070                     ?_Lcd_Write_String:	
   501                           ; 1 bytes @ 0x0
   502                           
   503  0070                     ?_ADC_CH0:	
   504                           ; 1 bytes @ 0x0
   505                           
   506  0070                     ?_ADC_val:	
   507                           ; 1 bytes @ 0x0
   508                           
   509  0070                     ?_main:	
   510                           ; 1 bytes @ 0x0
   511                           
   512  0070                     ?_Lcd_Port:	
   513                           ; 1 bytes @ 0x0
   514                           
   515  0070                     ??_Lcd_Port:	
   516                           ; 1 bytes @ 0x0
   517                           
   518  0070                     ?_Lcd_Cmd:	
   519                           ; 1 bytes @ 0x0
   520                           
   521  0070                     ?_Lcd_Write_Char:	
   522                           ; 1 bytes @ 0x0
   523                           
   524  0070                     ?_ADC_ch:	
   525                           ; 1 bytes @ 0x0
   526                           
   527  0070                     ?__Umul8_16:	
   528                           ; 2 bytes @ 0x0
   529                           
   530  0070                     ?___xxtofl:	
   531                           ; 2 bytes @ 0x0
   532                           
   533  0070                     Lcd_Port@a:	
   534                           ; 4 bytes @ 0x0
   535                           
   536  0070                     ADC_val@ADRES_L:	
   537                           ; 1 bytes @ 0x0
   538                           
   539  0070                     ADC_val@ADRES_H:	
   540                           ; 1 bytes @ 0x0
   541                           
   542  0070                     __Umul8_16@multiplicand:	
   543                           ; 1 bytes @ 0x0
   544                           
   545  0070                     ADC_ch@channel:	
   546                           ; 1 bytes @ 0x0
   547                           
   548  0070                     ___xxtofl@val:	
   549                           ; 2 bytes @ 0x0
   550                           
   551                           
   552                           ; 4 bytes @ 0x0
   553  0070                     	ds	1
   554  0071                     ??_ADC_val:
   555  0071                     ??_Lcd_Cmd:	
   556                           ; 1 bytes @ 0x1
   557                           
   558  0071                     ??_Lcd_Write_Char:	
   559                           ; 1 bytes @ 0x1
   560                           
   561                           
   562                           ; 1 bytes @ 0x1
   563  0071                     	ds	1
   564  0072                     ??_ADC_ch:
   565  0072                     ??__Umul8_16:	
   566                           ; 1 bytes @ 0x2
   567                           
   568  0072                     Lcd_Write_Char@a:	
   569                           ; 1 bytes @ 0x2
   570                           
   571                           
   572                           ; 1 bytes @ 0x2
   573  0072                     	ds	1
   574  0073                     ??_Lcd_Write_String:
   575  0073                     Lcd_Cmd@a:	
   576                           ; 1 bytes @ 0x3
   577                           
   578  0073                     Lcd_Write_String@i:	
   579                           ; 1 bytes @ 0x3
   580                           
   581                           
   582                           ; 2 bytes @ 0x3
   583  0073                     	ds	1
   584  0074                     ??_Lcd_Init:
   585  0074                     ??_Lcd_Clear:	
   586                           ; 1 bytes @ 0x4
   587                           
   588  0074                     ?_Lcd_Set_Cursor:	
   589                           ; 1 bytes @ 0x4
   590                           
   591  0074                     ??___xxtofl:	
   592                           ; 1 bytes @ 0x4
   593                           
   594  0074                     Lcd_Set_Cursor@b:	
   595                           ; 1 bytes @ 0x4
   596                           
   597  0074                     __Umul8_16@product:	
   598                           ; 1 bytes @ 0x4
   599                           
   600                           
   601                           ; 2 bytes @ 0x4
   602  0074                     	ds	1
   603  0075                     ??_Lcd_Set_Cursor:
   604  0075                     Lcd_Write_String@a:	
   605                           ; 1 bytes @ 0x5
   606                           
   607                           
   608                           ; 1 bytes @ 0x5
   609  0075                     	ds	1
   610  0076                     Lcd_Set_Cursor@a:
   611  0076                     __Umul8_16@word_mpld:	
   612                           ; 1 bytes @ 0x6
   613                           
   614                           
   615                           ; 2 bytes @ 0x6
   616  0076                     	ds	1
   617  0077                     Lcd_Set_Cursor@temp:
   618                           
   619                           ; 1 bytes @ 0x7
   620  0077                     	ds	1
   621  0078                     __Umul8_16@multiplier:
   622  0078                     ___xxtofl@sign:	
   623                           ; 1 bytes @ 0x8
   624                           
   625                           
   626                           ; 1 bytes @ 0x8
   627  0078                     	ds	1
   628  0079                     ___xxtofl@exp:
   629                           
   630                           ; 1 bytes @ 0x9
   631  0079                     	ds	1
   632  007A                     ___xxtofl@arg:
   633                           
   634                           ; 4 bytes @ 0xA
   635  007A                     	ds	4
   636                           
   637                           	psect	cstackBANK0
   638  0020                     __pcstackBANK0:
   639  0020                     ?___flmul:
   640  0020                     ___flmul@b:	
   641                           ; 4 bytes @ 0x0
   642                           
   643                           
   644                           ; 4 bytes @ 0x0
   645  0020                     	ds	4
   646  0024                     ___flmul@a:
   647                           
   648                           ; 4 bytes @ 0x4
   649  0024                     	ds	4
   650  0028                     ??___flmul:
   651                           
   652                           ; 1 bytes @ 0x8
   653  0028                     	ds	5
   654  002D                     ___flmul@sign:
   655                           
   656                           ; 1 bytes @ 0xD
   657  002D                     	ds	1
   658  002E                     ___flmul@grs:
   659                           
   660                           ; 4 bytes @ 0xE
   661  002E                     	ds	4
   662  0032                     ___flmul@aexp:
   663                           
   664                           ; 1 bytes @ 0x12
   665  0032                     	ds	1
   666  0033                     ___flmul@bexp:
   667                           
   668                           ; 1 bytes @ 0x13
   669  0033                     	ds	1
   670  0034                     ___flmul@prod:
   671                           
   672                           ; 4 bytes @ 0x14
   673  0034                     	ds	4
   674  0038                     ___flmul@temp:
   675                           
   676                           ; 2 bytes @ 0x18
   677  0038                     	ds	2
   678  003A                     ?___fldiv:
   679  003A                     ___fldiv@a:	
   680                           ; 4 bytes @ 0x1A
   681                           
   682                           
   683                           ; 4 bytes @ 0x1A
   684  003A                     	ds	4
   685  003E                     ___fldiv@b:
   686                           
   687                           ; 4 bytes @ 0x1E
   688  003E                     	ds	4
   689  0042                     ??___fldiv:
   690                           
   691                           ; 1 bytes @ 0x22
   692  0042                     	ds	5
   693  0047                     ___fldiv@rem:
   694                           
   695                           ; 4 bytes @ 0x27
   696  0047                     	ds	4
   697  004B                     ___fldiv@sign:
   698                           
   699                           ; 1 bytes @ 0x2B
   700  004B                     	ds	1
   701  004C                     ___fldiv@new_exp:
   702                           
   703                           ; 2 bytes @ 0x2C
   704  004C                     	ds	2
   705  004E                     ___fldiv@grs:
   706                           
   707                           ; 4 bytes @ 0x2E
   708  004E                     	ds	4
   709  0052                     ___fldiv@bexp:
   710                           
   711                           ; 1 bytes @ 0x32
   712  0052                     	ds	1
   713  0053                     ___fldiv@aexp:
   714                           
   715                           ; 1 bytes @ 0x33
   716  0053                     	ds	1
   717  0054                     ??_ADC_CH0:
   718                           
   719                           ; 1 bytes @ 0x34
   720  0054                     	ds	4
   721  0058                     ??_main:
   722                           
   723                           ; 1 bytes @ 0x38
   724  0058                     	ds	3
   725                           
   726                           	psect	maintext
   727  0121                     __pmaintext:	
   728 ;;
   729 ;;Main: autosize = 0, tempsize = 3, incstack = 0, save=0
   730 ;;
   731 ;; *************** function _main *****************
   732 ;; Defined at:
   733 ;;		line 89 in file "main.c"
   734 ;; Parameters:    Size  Location     Type
   735 ;;		None
   736 ;; Auto vars:     Size  Location     Type
   737 ;;		None
   738 ;; Return value:  Size  Location     Type
   739 ;;                  1    wreg      void 
   740 ;; Registers used:
   741 ;;		wreg, fsr0l, fsr0h, status,2, status,0, btemp+1, pclath, cstack
   742 ;; Tracked objects:
   743 ;;		On entry : B00/0
   744 ;;		On exit  : 0/0
   745 ;;		Unchanged: 0/0
   746 ;; Data sizes:     COMMON   BANK0   BANK1   BANK3   BANK2
   747 ;;      Params:         0       0       0       0       0
   748 ;;      Locals:         0       0       0       0       0
   749 ;;      Temps:          0       3       0       0       0
   750 ;;      Totals:         0       3       0       0       0
   751 ;;Total ram usage:        3 bytes
   752 ;; Hardware stack levels required when called:    3
   753 ;; This function calls:
   754 ;;		_ADC_CH0
   755 ;;		_Lcd_Clear
   756 ;;		_Lcd_Init
   757 ;;		_Lcd_Set_Cursor
   758 ;;		_Lcd_Write_String
   759 ;;		_setup
   760 ;; This function is called by:
   761 ;;		Startup code after reset
   762 ;; This function uses a non-reentrant model
   763 ;;
   764                           
   765                           
   766                           ;psect for function _main
   767  0121                     _main:
   768  0121                     l1609:	
   769                           ;incstack = 0
   770                           ; Regs used in _main: [wreg-fsr0h+status,2+status,0+btemp+1+pclath+cstack]
   771                           
   772                           
   773                           ;main.c: 90:   setup ();
   774  0121  120A  118A  2089  120A  118A  	fcall	_setup
   775  0126                     l1611:
   776                           
   777                           ;main.c: 92:   TRISD = 0x00;
   778  0126  1683               	bsf	3,5	;RP0=1, select bank1
   779  0127  1303               	bcf	3,6	;RP1=0, select bank1
   780  0128  0188               	clrf	8	;volatile
   781  0129                     l1613:
   782                           
   783                           ;main.c: 93:   Lcd_Init();
   784  0129  120A  118A  20D6  120A  118A  	fcall	_Lcd_Init
   785  012E                     l1615:
   786                           
   787                           ;main.c: 95:   {;main.c: 96:           Lcd_Clear();
   788  012E  120A  158A  27D9  120A  118A  	fcall	_Lcd_Clear
   789  0133                     l1617:
   790                           
   791                           ;main.c: 97:     Lcd_Set_Cursor(1,1);
   792  0133  01F4               	clrf	Lcd_Set_Cursor@b
   793  0134  0AF4               	incf	Lcd_Set_Cursor@b,f
   794  0135  3001               	movlw	1
   795  0136  120A  118A  2040  120A  118A  	fcall	_Lcd_Set_Cursor
   796  013B                     l1619:
   797                           
   798                           ;main.c: 98:     Lcd_Write_String("S1:");
   799  013B  3001               	movlw	(low ((STR_1-__stringbase)| (0+32768)))& (0+255)
   800  013C  120A  118A  2064  120A  118A  	fcall	_Lcd_Write_String
   801  0141                     l1621:
   802                           
   803                           ;main.c: 99:     Lcd_Set_Cursor(1,7);
   804  0141  3007               	movlw	7
   805  0142  1283               	bcf	3,5	;RP0=0, select bank0
   806  0143  1303               	bcf	3,6	;RP1=0, select bank0
   807  0144  00D8               	movwf	??_main
   808  0145  0858               	movf	??_main,w
   809  0146  00F4               	movwf	Lcd_Set_Cursor@b
   810  0147  3001               	movlw	1
   811  0148  120A  118A  2040  120A  118A  	fcall	_Lcd_Set_Cursor
   812  014D                     l1623:
   813                           
   814                           ;main.c: 100:     Lcd_Write_String("S2:");
   815  014D  3005               	movlw	(low ((STR_2-__stringbase)| (0+32768)))& (0+255)
   816  014E  120A  118A  2064  120A  118A  	fcall	_Lcd_Write_String
   817  0153                     l1625:
   818                           
   819                           ;main.c: 101:     Lcd_Set_Cursor(1,14);
   820  0153  300E               	movlw	14
   821  0154  1283               	bcf	3,5	;RP0=0, select bank0
   822  0155  1303               	bcf	3,6	;RP1=0, select bank0
   823  0156  00D8               	movwf	??_main
   824  0157  0858               	movf	??_main,w
   825  0158  00F4               	movwf	Lcd_Set_Cursor@b
   826  0159  3001               	movlw	1
   827  015A  120A  118A  2040  120A  118A  	fcall	_Lcd_Set_Cursor
   828  015F                     l1627:
   829                           
   830                           ;main.c: 102:     Lcd_Write_String("S3:");
   831  015F  3009               	movlw	(low ((STR_3-__stringbase)| (0+32768)))& (0+255)
   832  0160  120A  118A  2064  120A  118A  	fcall	_Lcd_Write_String
   833  0165                     l1629:
   834                           
   835                           ;main.c: 103:     _delay((unsigned long)((2000)*(8000000/4000.0)));
   836  0165  3015               	movlw	21
   837  0166  1283               	bcf	3,5	;RP0=0, select bank0
   838  0167  1303               	bcf	3,6	;RP1=0, select bank0
   839  0168  00DA               	movwf	??_main+2
   840  0169  304B               	movlw	75
   841  016A  00D9               	movwf	??_main+1
   842  016B  30BD               	movlw	189
   843  016C  00D8               	movwf	??_main
   844  016D                     u1757:
   845  016D  0BD8               	decfsz	??_main,f
   846  016E  296D               	goto	u1757
   847  016F  0BD9               	decfsz	??_main+1,f
   848  0170  296D               	goto	u1757
   849  0171  0BDA               	decfsz	??_main+2,f
   850  0172  296D               	goto	u1757
   851  0173  2974               	nop2
   852  0174                     l1631:
   853                           
   854                           ;main.c: 104:     ADC_CH0();
   855  0174  120A  118A  217D  120A  118A  	fcall	_ADC_CH0
   856  0179  292E               	goto	l1615
   857  017A  120A  118A  2800   	ljmp	start
   858  017D                     __end_of_main:
   859                           
   860                           	psect	text1
   861  0089                     __ptext1:	
   862 ;; *************** function _setup *****************
   863 ;; Defined at:
   864 ;;		line 118 in file "main.c"
   865 ;; Parameters:    Size  Location     Type
   866 ;;		None
   867 ;; Auto vars:     Size  Location     Type
   868 ;;		None
   869 ;; Return value:  Size  Location     Type
   870 ;;                  1    wreg      void 
   871 ;; Registers used:
   872 ;;		wreg, status,2
   873 ;; Tracked objects:
   874 ;;		On entry : 0/0
   875 ;;		On exit  : 0/0
   876 ;;		Unchanged: 0/0
   877 ;; Data sizes:     COMMON   BANK0   BANK1   BANK3   BANK2
   878 ;;      Params:         0       0       0       0       0
   879 ;;      Locals:         0       0       0       0       0
   880 ;;      Temps:          0       0       0       0       0
   881 ;;      Totals:         0       0       0       0       0
   882 ;;Total ram usage:        0 bytes
   883 ;; Hardware stack levels used:    1
   884 ;; This function calls:
   885 ;;		Nothing
   886 ;; This function is called by:
   887 ;;		_main
   888 ;; This function uses a non-reentrant model
   889 ;;
   890                           
   891                           
   892                           ;psect for function _setup
   893  0089                     _setup:
   894  0089                     l1113:	
   895                           ;incstack = 0
   896                           ; Regs used in _setup: [wreg+status,2]
   897                           
   898                           
   899                           ;main.c: 119:     ANSEL = 0b00000011;
   900  0089  3003               	movlw	3
   901  008A  1683               	bsf	3,5	;RP0=1, select bank3
   902  008B  1703               	bsf	3,6	;RP1=1, select bank3
   903  008C  0088               	movwf	8	;volatile
   904  008D                     l1115:
   905                           
   906                           ;main.c: 120:     ANSELH = 0;
   907  008D  0189               	clrf	9	;volatile
   908  008E                     l1117:
   909                           
   910                           ;main.c: 121:     TRISA = 0b00000011;
   911  008E  3003               	movlw	3
   912  008F  1683               	bsf	3,5	;RP0=1, select bank1
   913  0090  1303               	bcf	3,6	;RP1=0, select bank1
   914  0091  0085               	movwf	5	;volatile
   915                           
   916                           ;main.c: 122:     TRISB = 0;
   917  0092  0186               	clrf	6	;volatile
   918                           
   919                           ;main.c: 123:     TRISC = 0;
   920  0093  0187               	clrf	7	;volatile
   921                           
   922                           ;main.c: 124:     TRISD = 0;
   923  0094  0188               	clrf	8	;volatile
   924                           
   925                           ;main.c: 125:     TRISE = 0;
   926  0095  0189               	clrf	9	;volatile
   927                           
   928                           ;main.c: 126:     PORTA = 0;
   929  0096  1283               	bcf	3,5	;RP0=0, select bank0
   930  0097  1303               	bcf	3,6	;RP1=0, select bank0
   931  0098  0185               	clrf	5	;volatile
   932                           
   933                           ;main.c: 127:     PORTB = 0;
   934  0099  0186               	clrf	6	;volatile
   935                           
   936                           ;main.c: 128:     PORTC = 0;
   937  009A  0187               	clrf	7	;volatile
   938                           
   939                           ;main.c: 129:     PORTD = 0;
   940  009B  0188               	clrf	8	;volatile
   941                           
   942                           ;main.c: 130:     PORTE = 0;
   943  009C  0189               	clrf	9	;volatile
   944  009D                     l1119:
   945                           
   946                           ;main.c: 139:     PIE1bits.ADIE = 0;
   947  009D  1683               	bsf	3,5	;RP0=1, select bank1
   948  009E  1303               	bcf	3,6	;RP1=0, select bank1
   949  009F  130C               	bcf	12,6	;volatile
   950  00A0                     l1121:
   951                           
   952                           ;main.c: 140:     PIR1bits.ADIF = 0;
   953  00A0  1283               	bcf	3,5	;RP0=0, select bank0
   954  00A1  1303               	bcf	3,6	;RP1=0, select bank0
   955  00A2  130C               	bcf	12,6	;volatile
   956                           
   957                           ;main.c: 141:     OPTION_REG = 0b00000000;
   958  00A3  1683               	bsf	3,5	;RP0=1, select bank1
   959  00A4  1303               	bcf	3,6	;RP1=0, select bank1
   960  00A5  0181               	clrf	1	;volatile
   961                           
   962                           ;main.c: 142:     INTCON = 0b00000000;
   963  00A6  018B               	clrf	11	;volatile
   964  00A7                     l1123:
   965                           
   966                           ;main.c: 143:     ADCON0 = 0b11000001;
   967  00A7  30C1               	movlw	193
   968  00A8  1283               	bcf	3,5	;RP0=0, select bank0
   969  00A9  1303               	bcf	3,6	;RP1=0, select bank0
   970  00AA  009F               	movwf	31	;volatile
   971  00AB                     l1125:
   972                           
   973                           ;main.c: 144:     ADCON1 = 0b00000000;
   974  00AB  1683               	bsf	3,5	;RP0=1, select bank1
   975  00AC  1303               	bcf	3,6	;RP1=0, select bank1
   976  00AD  019F               	clrf	31	;volatile
   977  00AE                     l77:
   978  00AE  0008               	return
   979  00AF                     __end_of_setup:
   980                           
   981                           	psect	text2
   982  0064                     __ptext2:	
   983 ;; *************** function _Lcd_Write_String *****************
   984 ;; Defined at:
   985 ;;		line 132 in file "LCD.c"
   986 ;; Parameters:    Size  Location     Type
   987 ;;  a               1    wreg     PTR unsigned char 
   988 ;;		 -> STR_3(4), STR_2(4), STR_1(4), 
   989 ;; Auto vars:     Size  Location     Type
   990 ;;  a               1    5[COMMON] PTR unsigned char 
   991 ;;		 -> STR_3(4), STR_2(4), STR_1(4), 
   992 ;;  i               2    3[COMMON] int 
   993 ;; Return value:  Size  Location     Type
   994 ;;                  1    wreg      void 
   995 ;; Registers used:
   996 ;;		wreg, fsr0l, fsr0h, status,2, status,0, pclath, cstack
   997 ;; Tracked objects:
   998 ;;		On entry : 0/0
   999 ;;		On exit  : 0/0
  1000 ;;		Unchanged: 0/0
  1001 ;; Data sizes:     COMMON   BANK0   BANK1   BANK3   BANK2
  1002 ;;      Params:         0       0       0       0       0
  1003 ;;      Locals:         3       0       0       0       0
  1004 ;;      Temps:          0       0       0       0       0
  1005 ;;      Totals:         3       0       0       0       0
  1006 ;;Total ram usage:        3 bytes
  1007 ;; Hardware stack levels used:    1
  1008 ;; Hardware stack levels required when called:    2
  1009 ;; This function calls:
  1010 ;;		_Lcd_Write_Char
  1011 ;; This function is called by:
  1012 ;;		_main
  1013 ;; This function uses a non-reentrant model
  1014 ;;
  1015                           
  1016                           
  1017                           ;psect for function _Lcd_Write_String
  1018  0064                     _Lcd_Write_String:
  1019                           
  1020                           ;incstack = 0
  1021                           ; Regs used in _Lcd_Write_String: [wreg-fsr0h+status,2+status,0+pclath+cstack]
  1022                           ;Lcd_Write_String@a stored from wreg
  1023  0064  00F5               	movwf	Lcd_Write_String@a
  1024  0065                     l1587:
  1025                           
  1026                           ;LCD.c: 132: void Lcd_Write_String(char *a);LCD.c: 133: {;LCD.c: 134:  int i;;LCD.c: 135
      +                          :  for(i=0;a[i]!='\0';i++)
  1027  0065  01F3               	clrf	Lcd_Write_String@i
  1028  0066  01F4               	clrf	Lcd_Write_String@i+1
  1029  0067  287B               	goto	l1593
  1030  0068                     l1589:
  1031                           
  1032                           ;LCD.c: 136:     Lcd_Write_Char(a[i]);
  1033  0068  0873               	movf	Lcd_Write_String@i,w
  1034  0069  0775               	addwf	Lcd_Write_String@a,w
  1035  006A  0084               	movwf	4
  1036  006B  120A  158A  2000  120A  118A  	fcall	stringdir
  1037  0070  120A  118A  2006  120A  118A  	fcall	_Lcd_Write_Char
  1038  0075                     l1591:
  1039  0075  3001               	movlw	1
  1040  0076  07F3               	addwf	Lcd_Write_String@i,f
  1041  0077  1803               	skipnc
  1042  0078  0AF4               	incf	Lcd_Write_String@i+1,f
  1043  0079  3000               	movlw	0
  1044  007A  07F4               	addwf	Lcd_Write_String@i+1,f
  1045  007B                     l1593:
  1046  007B  0873               	movf	Lcd_Write_String@i,w
  1047  007C  0775               	addwf	Lcd_Write_String@a,w
  1048  007D  0084               	movwf	4
  1049  007E  120A  158A  2000  120A  118A  	fcall	stringdir
  1050  0083  3A00               	xorlw	0
  1051  0084  1D03               	skipz
  1052  0085  2887               	goto	u1731
  1053  0086  2888               	goto	u1730
  1054  0087                     u1731:
  1055  0087  2868               	goto	l1589
  1056  0088                     u1730:
  1057  0088                     l118:
  1058  0088  0008               	return
  1059  0089                     __end_of_Lcd_Write_String:
  1060                           
  1061                           	psect	text3
  1062  0006                     __ptext3:	
  1063 ;; *************** function _Lcd_Write_Char *****************
  1064 ;; Defined at:
  1065 ;;		line 115 in file "LCD.c"
  1066 ;; Parameters:    Size  Location     Type
  1067 ;;  a               1    wreg     unsigned char 
  1068 ;; Auto vars:     Size  Location     Type
  1069 ;;  a               1    2[COMMON] unsigned char 
  1070 ;; Return value:  Size  Location     Type
  1071 ;;                  1    wreg      void 
  1072 ;; Registers used:
  1073 ;;		wreg, status,2, status,0, pclath, cstack
  1074 ;; Tracked objects:
  1075 ;;		On entry : 0/0
  1076 ;;		On exit  : 0/0
  1077 ;;		Unchanged: 0/0
  1078 ;; Data sizes:     COMMON   BANK0   BANK1   BANK3   BANK2
  1079 ;;      Params:         0       0       0       0       0
  1080 ;;      Locals:         1       0       0       0       0
  1081 ;;      Temps:          1       0       0       0       0
  1082 ;;      Totals:         2       0       0       0       0
  1083 ;;Total ram usage:        2 bytes
  1084 ;; Hardware stack levels used:    1
  1085 ;; Hardware stack levels required when called:    1
  1086 ;; This function calls:
  1087 ;;		_Lcd_Port
  1088 ;; This function is called by:
  1089 ;;		_Lcd_Write_String
  1090 ;; This function uses a non-reentrant model
  1091 ;;
  1092                           
  1093                           
  1094                           ;psect for function _Lcd_Write_Char
  1095  0006                     _Lcd_Write_Char:
  1096                           
  1097                           ;incstack = 0
  1098                           ; Regs used in _Lcd_Write_Char: [wreg+status,2+status,0+pclath+cstack]
  1099                           ;Lcd_Write_Char@a stored from wreg
  1100  0006  00F2               	movwf	Lcd_Write_Char@a
  1101  0007                     l777:
  1102                           
  1103                           ;LCD.c: 115: void Lcd_Write_Char(char a);LCD.c: 116: {;LCD.c: 121:    RE0 = 1;
  1104  0007  1283               	bcf	3,5	;RP0=0, select bank0
  1105  0008  1303               	bcf	3,6	;RP1=0, select bank0
  1106  0009  1409               	bsf	9,0	;volatile
  1107  000A                     l779:
  1108                           
  1109                           ;LCD.c: 126:    Lcd_Port(a);
  1110  000A  0872               	movf	Lcd_Write_Char@a,w
  1111  000B  120A  158A  27C3  120A  118A  	fcall	_Lcd_Port
  1112  0010                     l781:
  1113                           
  1114                           ;LCD.c: 127:    RE1 = 1;
  1115  0010  1283               	bcf	3,5	;RP0=0, select bank0
  1116  0011  1303               	bcf	3,6	;RP1=0, select bank0
  1117  0012  1489               	bsf	9,1	;volatile
  1118  0013                     l783:
  1119                           
  1120                           ;LCD.c: 128:    _delay((unsigned long)((40)*(8000000/4000000.0)));
  1121  0013  301A               	movlw	26
  1122  0014  00F1               	movwf	??_Lcd_Write_Char
  1123  0015                     u1767:
  1124  0015  0BF1               	decfsz	??_Lcd_Write_Char,f
  1125  0016  2815               	goto	u1767
  1126  0017  0000               	nop
  1127  0018                     l785:
  1128                           
  1129                           ;LCD.c: 129:    RE1 = 0;
  1130  0018  1283               	bcf	3,5	;RP0=0, select bank0
  1131  0019  1303               	bcf	3,6	;RP1=0, select bank0
  1132  001A  1089               	bcf	9,1	;volatile
  1133  001B                     l112:
  1134  001B  0008               	return
  1135  001C                     __end_of_Lcd_Write_Char:
  1136                           
  1137                           	psect	text4
  1138  0040                     __ptext4:	
  1139 ;; *************** function _Lcd_Set_Cursor *****************
  1140 ;; Defined at:
  1141 ;;		line 75 in file "LCD.c"
  1142 ;; Parameters:    Size  Location     Type
  1143 ;;  a               1    wreg     unsigned char 
  1144 ;;  b               1    4[COMMON] unsigned char 
  1145 ;; Auto vars:     Size  Location     Type
  1146 ;;  a               1    6[COMMON] unsigned char 
  1147 ;;  temp            1    7[COMMON] unsigned char 
  1148 ;; Return value:  Size  Location     Type
  1149 ;;                  1    wreg      void 
  1150 ;; Registers used:
  1151 ;;		wreg, status,2, status,0, pclath, cstack
  1152 ;; Tracked objects:
  1153 ;;		On entry : 0/0
  1154 ;;		On exit  : 0/0
  1155 ;;		Unchanged: 0/0
  1156 ;; Data sizes:     COMMON   BANK0   BANK1   BANK3   BANK2
  1157 ;;      Params:         1       0       0       0       0
  1158 ;;      Locals:         2       0       0       0       0
  1159 ;;      Temps:          1       0       0       0       0
  1160 ;;      Totals:         4       0       0       0       0
  1161 ;;Total ram usage:        4 bytes
  1162 ;; Hardware stack levels used:    1
  1163 ;; Hardware stack levels required when called:    2
  1164 ;; This function calls:
  1165 ;;		_Lcd_Cmd
  1166 ;; This function is called by:
  1167 ;;		_main
  1168 ;; This function uses a non-reentrant model
  1169 ;;
  1170                           
  1171                           
  1172                           ;psect for function _Lcd_Set_Cursor
  1173  0040                     _Lcd_Set_Cursor:
  1174                           
  1175                           ;incstack = 0
  1176                           ; Regs used in _Lcd_Set_Cursor: [wreg+status,2+status,0+pclath+cstack]
  1177                           ;Lcd_Set_Cursor@a stored from wreg
  1178  0040  00F6               	movwf	Lcd_Set_Cursor@a
  1179  0041                     l1575:
  1180                           
  1181                           ;LCD.c: 75: void Lcd_Set_Cursor(char a, char b);LCD.c: 76: {;LCD.c: 77:  char temp;;LCD.
      +                          c: 78:  if(a == 1)
  1182  0041  0376               	decf	Lcd_Set_Cursor@a,w
  1183  0042  1D03               	btfss	3,2
  1184  0043  2845               	goto	u1711
  1185  0044  2846               	goto	u1710
  1186  0045                     u1711:
  1187  0045  2852               	goto	l1581
  1188  0046                     u1710:
  1189  0046                     l1577:
  1190                           
  1191                           ;LCD.c: 79:  {;LCD.c: 80:    temp = 0x80 + b - 1;
  1192  0046  0874               	movf	Lcd_Set_Cursor@b,w
  1193  0047  3E7F               	addlw	127
  1194  0048  00F5               	movwf	??_Lcd_Set_Cursor
  1195  0049  0875               	movf	??_Lcd_Set_Cursor,w
  1196  004A  00F7               	movwf	Lcd_Set_Cursor@temp
  1197  004B                     l1579:
  1198                           
  1199                           ;LCD.c: 84:   Lcd_Cmd(temp);
  1200  004B  0877               	movf	Lcd_Set_Cursor@temp,w
  1201  004C  120A  158A  27E6  120A  118A  	fcall	_Lcd_Cmd
  1202                           
  1203                           ;LCD.c: 85:  }
  1204  0051  2863               	goto	l106
  1205  0052                     l1581:
  1206  0052  3002               	movlw	2
  1207  0053  0676               	xorwf	Lcd_Set_Cursor@a,w
  1208  0054  1D03               	btfss	3,2
  1209  0055  2857               	goto	u1721
  1210  0056  2858               	goto	u1720
  1211  0057                     u1721:
  1212  0057  2863               	goto	l106
  1213  0058                     u1720:
  1214  0058                     l1583:
  1215                           
  1216                           ;LCD.c: 87:  {;LCD.c: 88:   temp = 0xC0 + b - 1;
  1217  0058  0874               	movf	Lcd_Set_Cursor@b,w
  1218  0059  3EBF               	addlw	191
  1219  005A  00F5               	movwf	??_Lcd_Set_Cursor
  1220  005B  0875               	movf	??_Lcd_Set_Cursor,w
  1221  005C  00F7               	movwf	Lcd_Set_Cursor@temp
  1222  005D                     l1585:
  1223                           
  1224                           ;LCD.c: 92:   Lcd_Cmd(temp);
  1225  005D  0877               	movf	Lcd_Set_Cursor@temp,w
  1226  005E  120A  158A  27E6  120A  118A  	fcall	_Lcd_Cmd
  1227  0063                     l106:
  1228  0063  0008               	return
  1229  0064                     __end_of_Lcd_Set_Cursor:
  1230                           
  1231                           	psect	text5
  1232  00D6                     __ptext5:	
  1233 ;; *************** function _Lcd_Init *****************
  1234 ;; Defined at:
  1235 ;;		line 96 in file "LCD.c"
  1236 ;; Parameters:    Size  Location     Type
  1237 ;;		None
  1238 ;; Auto vars:     Size  Location     Type
  1239 ;;		None
  1240 ;; Return value:  Size  Location     Type
  1241 ;;                  1    wreg      void 
  1242 ;; Registers used:
  1243 ;;		wreg, status,2, status,0, pclath, cstack
  1244 ;; Tracked objects:
  1245 ;;		On entry : 0/0
  1246 ;;		On exit  : 0/0
  1247 ;;		Unchanged: 0/0
  1248 ;; Data sizes:     COMMON   BANK0   BANK1   BANK3   BANK2
  1249 ;;      Params:         0       0       0       0       0
  1250 ;;      Locals:         0       0       0       0       0
  1251 ;;      Temps:          2       0       0       0       0
  1252 ;;      Totals:         2       0       0       0       0
  1253 ;;Total ram usage:        2 bytes
  1254 ;; Hardware stack levels used:    1
  1255 ;; Hardware stack levels required when called:    2
  1256 ;; This function calls:
  1257 ;;		_Lcd_Cmd
  1258 ;;		_Lcd_Port
  1259 ;; This function is called by:
  1260 ;;		_main
  1261 ;; This function uses a non-reentrant model
  1262 ;;
  1263                           
  1264                           
  1265                           ;psect for function _Lcd_Init
  1266  00D6                     _Lcd_Init:
  1267  00D6                     l1127:	
  1268                           ;incstack = 0
  1269                           ; Regs used in _Lcd_Init: [wreg+status,2+status,0+pclath+cstack]
  1270                           
  1271                           
  1272                           ;LCD.c: 98:   Lcd_Port(0x00);
  1273  00D6  3000               	movlw	0
  1274  00D7  120A  158A  27C3  120A  118A  	fcall	_Lcd_Port
  1275  00DC                     l1129:
  1276                           
  1277                           ;LCD.c: 99:    _delay((unsigned long)((20)*(8000000/4000.0)));
  1278  00DC  3034               	movlw	52
  1279  00DD  00F5               	movwf	??_Lcd_Init+1
  1280  00DE  30F1               	movlw	241
  1281  00DF  00F4               	movwf	??_Lcd_Init
  1282  00E0                     u1777:
  1283  00E0  0BF4               	decfsz	??_Lcd_Init,f
  1284  00E1  28E0               	goto	u1777
  1285  00E2  0BF5               	decfsz	??_Lcd_Init+1,f
  1286  00E3  28E0               	goto	u1777
  1287  00E4  28E5               	nop2
  1288  00E5                     l1131:
  1289                           
  1290                           ;LCD.c: 100:   Lcd_Cmd(0x30);
  1291  00E5  3030               	movlw	48
  1292  00E6  120A  158A  27E6  120A  118A  	fcall	_Lcd_Cmd
  1293                           
  1294                           ;LCD.c: 101:  _delay((unsigned long)((5)*(8000000/4000.0)));
  1295  00EB  300D               	movlw	13
  1296  00EC  00F5               	movwf	??_Lcd_Init+1
  1297  00ED  30FB               	movlw	251
  1298  00EE  00F4               	movwf	??_Lcd_Init
  1299  00EF                     u1787:
  1300  00EF  0BF4               	decfsz	??_Lcd_Init,f
  1301  00F0  28EF               	goto	u1787
  1302  00F1  0BF5               	decfsz	??_Lcd_Init+1,f
  1303  00F2  28EF               	goto	u1787
  1304  00F3  28F4               	nop2
  1305  00F4                     l1133:
  1306                           
  1307                           ;LCD.c: 102:   Lcd_Cmd(0x30);
  1308  00F4  3030               	movlw	48
  1309  00F5  120A  158A  27E6  120A  118A  	fcall	_Lcd_Cmd
  1310  00FA                     l1135:
  1311                           
  1312                           ;LCD.c: 103:  _delay((unsigned long)((11)*(8000000/4000.0)));
  1313  00FA  301D               	movlw	29
  1314  00FB  00F5               	movwf	??_Lcd_Init+1
  1315  00FC  3091               	movlw	145
  1316  00FD  00F4               	movwf	??_Lcd_Init
  1317  00FE                     u1797:
  1318  00FE  0BF4               	decfsz	??_Lcd_Init,f
  1319  00FF  28FE               	goto	u1797
  1320  0100  0BF5               	decfsz	??_Lcd_Init+1,f
  1321  0101  28FE               	goto	u1797
  1322                           
  1323                           ;LCD.c: 104:   Lcd_Cmd(0x30);
  1324  0102  3030               	movlw	48
  1325  0103  120A  158A  27E6  120A  118A  	fcall	_Lcd_Cmd
  1326                           
  1327                           ;LCD.c: 106:   Lcd_Cmd(0x38);
  1328  0108  3038               	movlw	56
  1329  0109  120A  158A  27E6  120A  118A  	fcall	_Lcd_Cmd
  1330                           
  1331                           ;LCD.c: 107:   Lcd_Cmd(0x0C);
  1332  010E  300C               	movlw	12
  1333  010F  120A  158A  27E6  120A  118A  	fcall	_Lcd_Cmd
  1334                           
  1335                           ;LCD.c: 108:   Lcd_Cmd(0x01);
  1336  0114  3001               	movlw	1
  1337  0115  120A  158A  27E6  120A  118A  	fcall	_Lcd_Cmd
  1338                           
  1339                           ;LCD.c: 109:   Lcd_Cmd(0x06);
  1340  011A  3006               	movlw	6
  1341  011B  120A  158A  27E6  120A  118A  	fcall	_Lcd_Cmd
  1342  0120                     l109:
  1343  0120  0008               	return
  1344  0121                     __end_of_Lcd_Init:
  1345                           
  1346                           	psect	text6
  1347  0FD9                     __ptext6:	
  1348 ;; *************** function _Lcd_Clear *****************
  1349 ;; Defined at:
  1350 ;;		line 69 in file "LCD.c"
  1351 ;; Parameters:    Size  Location     Type
  1352 ;;		None
  1353 ;; Auto vars:     Size  Location     Type
  1354 ;;		None
  1355 ;; Return value:  Size  Location     Type
  1356 ;;                  1    wreg      void 
  1357 ;; Registers used:
  1358 ;;		wreg, status,2, status,0, pclath, cstack
  1359 ;; Tracked objects:
  1360 ;;		On entry : 0/0
  1361 ;;		On exit  : 0/0
  1362 ;;		Unchanged: 0/0
  1363 ;; Data sizes:     COMMON   BANK0   BANK1   BANK3   BANK2
  1364 ;;      Params:         0       0       0       0       0
  1365 ;;      Locals:         0       0       0       0       0
  1366 ;;      Temps:          0       0       0       0       0
  1367 ;;      Totals:         0       0       0       0       0
  1368 ;;Total ram usage:        0 bytes
  1369 ;; Hardware stack levels used:    1
  1370 ;; Hardware stack levels required when called:    2
  1371 ;; This function calls:
  1372 ;;		_Lcd_Cmd
  1373 ;; This function is called by:
  1374 ;;		_main
  1375 ;; This function uses a non-reentrant model
  1376 ;;
  1377                           
  1378                           
  1379                           ;psect for function _Lcd_Clear
  1380  0FD9                     _Lcd_Clear:
  1381  0FD9                     l1137:	
  1382                           ;incstack = 0
  1383                           ; Regs used in _Lcd_Clear: [wreg+status,2+status,0+pclath+cstack]
  1384                           
  1385                           
  1386                           ;LCD.c: 71:  Lcd_Cmd(0);
  1387  0FD9  3000               	movlw	0
  1388  0FDA  120A  158A  27E6  120A  158A  	fcall	_Lcd_Cmd
  1389                           
  1390                           ;LCD.c: 72:  Lcd_Cmd(1);
  1391  0FDF  3001               	movlw	1
  1392  0FE0  120A  158A  27E6  120A  158A  	fcall	_Lcd_Cmd
  1393  0FE5                     l100:
  1394  0FE5  0008               	return
  1395  0FE6                     __end_of_Lcd_Clear:
  1396                           
  1397                           	psect	text7
  1398  0FE6                     __ptext7:	
  1399 ;; *************** function _Lcd_Cmd *****************
  1400 ;; Defined at:
  1401 ;;		line 60 in file "LCD.c"
  1402 ;; Parameters:    Size  Location     Type
  1403 ;;  a               1    wreg     unsigned char 
  1404 ;; Auto vars:     Size  Location     Type
  1405 ;;  a               1    3[COMMON] unsigned char 
  1406 ;; Return value:  Size  Location     Type
  1407 ;;                  1    wreg      void 
  1408 ;; Registers used:
  1409 ;;		wreg, status,2, status,0, pclath, cstack
  1410 ;; Tracked objects:
  1411 ;;		On entry : 0/0
  1412 ;;		On exit  : 0/0
  1413 ;;		Unchanged: 0/0
  1414 ;; Data sizes:     COMMON   BANK0   BANK1   BANK3   BANK2
  1415 ;;      Params:         0       0       0       0       0
  1416 ;;      Locals:         1       0       0       0       0
  1417 ;;      Temps:          2       0       0       0       0
  1418 ;;      Totals:         3       0       0       0       0
  1419 ;;Total ram usage:        3 bytes
  1420 ;; Hardware stack levels used:    1
  1421 ;; Hardware stack levels required when called:    1
  1422 ;; This function calls:
  1423 ;;		_Lcd_Port
  1424 ;; This function is called by:
  1425 ;;		_Lcd_Clear
  1426 ;;		_Lcd_Set_Cursor
  1427 ;;		_Lcd_Init
  1428 ;;		_Lcd_Shift_Right
  1429 ;;		_Lcd_Shift_Left
  1430 ;; This function uses a non-reentrant model
  1431 ;;
  1432                           
  1433                           
  1434                           ;psect for function _Lcd_Cmd
  1435  0FE6                     _Lcd_Cmd:
  1436                           
  1437                           ;incstack = 0
  1438                           ; Regs used in _Lcd_Cmd: [wreg+status,2+status,0+pclath+cstack]
  1439                           ;Lcd_Cmd@a stored from wreg
  1440  0FE6  00F3               	movwf	Lcd_Cmd@a
  1441  0FE7                     l767:
  1442                           
  1443                           ;LCD.c: 60: void Lcd_Cmd(char a);LCD.c: 61: {;LCD.c: 62:  RE0 = 0;
  1444  0FE7  1283               	bcf	3,5	;RP0=0, select bank0
  1445  0FE8  1303               	bcf	3,6	;RP1=0, select bank0
  1446  0FE9  1009               	bcf	9,0	;volatile
  1447  0FEA                     l769:
  1448                           
  1449                           ;LCD.c: 63:  Lcd_Port(a);
  1450  0FEA  0873               	movf	Lcd_Cmd@a,w
  1451  0FEB  120A  158A  27C3  120A  158A  	fcall	_Lcd_Port
  1452  0FF0                     l771:
  1453                           
  1454                           ;LCD.c: 64:  RE1 = 1;
  1455  0FF0  1283               	bcf	3,5	;RP0=0, select bank0
  1456  0FF1  1303               	bcf	3,6	;RP1=0, select bank0
  1457  0FF2  1489               	bsf	9,1	;volatile
  1458  0FF3                     l773:
  1459                           
  1460                           ;LCD.c: 65:         _delay((unsigned long)((4)*(8000000/4000.0)));
  1461  0FF3  300B               	movlw	11
  1462  0FF4  00F2               	movwf	??_Lcd_Cmd+1
  1463  0FF5  3062               	movlw	98
  1464  0FF6  00F1               	movwf	??_Lcd_Cmd
  1465  0FF7                     u1807:
  1466  0FF7  0BF1               	decfsz	??_Lcd_Cmd,f
  1467  0FF8  2FF7               	goto	u1807
  1468  0FF9  0BF2               	decfsz	??_Lcd_Cmd+1,f
  1469  0FFA  2FF7               	goto	u1807
  1470  0FFB  0000               	nop
  1471  0FFC                     l775:
  1472                           
  1473                           ;LCD.c: 66:         RE1 = 0;
  1474  0FFC  1283               	bcf	3,5	;RP0=0, select bank0
  1475  0FFD  1303               	bcf	3,6	;RP1=0, select bank0
  1476  0FFE  1089               	bcf	9,1	;volatile
  1477  0FFF                     l97:
  1478  0FFF  0008               	return
  1479  1000                     __end_of_Lcd_Cmd:
  1480                           
  1481                           	psect	text8
  1482  0FC3                     __ptext8:	
  1483 ;; *************** function _Lcd_Port *****************
  1484 ;; Defined at:
  1485 ;;		line 17 in file "LCD.c"
  1486 ;; Parameters:    Size  Location     Type
  1487 ;;  a               1    wreg     unsigned char 
  1488 ;; Auto vars:     Size  Location     Type
  1489 ;;  a               1    0[COMMON] unsigned char 
  1490 ;; Return value:  Size  Location     Type
  1491 ;;                  1    wreg      void 
  1492 ;; Registers used:
  1493 ;;		wreg
  1494 ;; Tracked objects:
  1495 ;;		On entry : 0/0
  1496 ;;		On exit  : 0/0
  1497 ;;		Unchanged: 0/0
  1498 ;; Data sizes:     COMMON   BANK0   BANK1   BANK3   BANK2
  1499 ;;      Params:         0       0       0       0       0
  1500 ;;      Locals:         1       0       0       0       0
  1501 ;;      Temps:          0       0       0       0       0
  1502 ;;      Totals:         1       0       0       0       0
  1503 ;;Total ram usage:        1 bytes
  1504 ;; Hardware stack levels used:    1
  1505 ;; This function calls:
  1506 ;;		Nothing
  1507 ;; This function is called by:
  1508 ;;		_Lcd_Cmd
  1509 ;;		_Lcd_Init
  1510 ;;		_Lcd_Write_Char
  1511 ;; This function uses a non-reentrant model
  1512 ;;
  1513                           
  1514                           
  1515                           ;psect for function _Lcd_Port
  1516  0FC3                     _Lcd_Port:
  1517                           
  1518                           ;incstack = 0
  1519                           ; Regs used in _Lcd_Port: [wreg]
  1520                           ;Lcd_Port@a stored from wreg
  1521  0FC3  00F0               	movwf	Lcd_Port@a
  1522  0FC4                     l737:
  1523                           
  1524                           ;LCD.c: 17: void Lcd_Port(char a);LCD.c: 18: {;LCD.c: 19:     PORTD = a;
  1525  0FC4  0870               	movf	Lcd_Port@a,w
  1526  0FC5  1283               	bcf	3,5	;RP0=0, select bank0
  1527  0FC6  1303               	bcf	3,6	;RP1=0, select bank0
  1528  0FC7  0088               	movwf	8	;volatile
  1529  0FC8                     l94:
  1530  0FC8  0008               	return
  1531  0FC9                     __end_of_Lcd_Port:
  1532                           
  1533                           	psect	text9
  1534  017D                     __ptext9:	
  1535 ;; *************** function _ADC_CH0 *****************
  1536 ;; Defined at:
  1537 ;;		line 150 in file "main.c"
  1538 ;; Parameters:    Size  Location     Type
  1539 ;;		None
  1540 ;; Auto vars:     Size  Location     Type
  1541 ;;		None
  1542 ;; Return value:  Size  Location     Type
  1543 ;;                  1    wreg      void 
  1544 ;; Registers used:
  1545 ;;		wreg, fsr0l, fsr0h, status,2, status,0, btemp+1, pclath, cstack
  1546 ;; Tracked objects:
  1547 ;;		On entry : 0/0
  1548 ;;		On exit  : 0/0
  1549 ;;		Unchanged: 0/0
  1550 ;; Data sizes:     COMMON   BANK0   BANK1   BANK3   BANK2
  1551 ;;      Params:         0       0       0       0       0
  1552 ;;      Locals:         0       0       0       0       0
  1553 ;;      Temps:          0       4       0       0       0
  1554 ;;      Totals:         0       4       0       0       0
  1555 ;;Total ram usage:        4 bytes
  1556 ;; Hardware stack levels used:    1
  1557 ;; Hardware stack levels required when called:    2
  1558 ;; This function calls:
  1559 ;;		_ADC_ch
  1560 ;;		_ADC_val
  1561 ;;		___fldiv
  1562 ;;		___flmul
  1563 ;;		___xxtofl
  1564 ;; This function is called by:
  1565 ;;		_main
  1566 ;; This function uses a non-reentrant model
  1567 ;;
  1568                           
  1569                           
  1570                           ;psect for function _ADC_CH0
  1571  017D                     _ADC_CH0:
  1572  017D                     l1595:	
  1573                           ;incstack = 0
  1574                           ; Regs used in _ADC_CH0: [wreg-fsr0h+status,2+status,0+btemp+1+pclath+cstack]
  1575                           
  1576                           
  1577                           ;main.c: 151:     ADC_ch(0);
  1578  017D  3000               	movlw	0
  1579  017E  00F0               	movwf	ADC_ch@channel
  1580  017F  00F1               	movwf	ADC_ch@channel+1
  1581  0180  120A  118A  201C  120A  118A  	fcall	_ADC_ch
  1582  0185                     l1597:
  1583                           
  1584                           ;main.c: 157:     _delay((unsigned long)((40)*(8000000/4000000.0)));
  1585  0185  3019               	movlw	25
  1586  0186  1283               	bcf	3,5	;RP0=0, select bank0
  1587  0187  1303               	bcf	3,6	;RP1=0, select bank0
  1588  0188  00D4               	movwf	??_ADC_CH0
  1589  0189                     u1817:
  1590  0189  0BD4               	decfsz	??_ADC_CH0,f
  1591  018A  2989               	goto	u1817
  1592  018B  298C               	nop2
  1593  018C                     l1599:
  1594                           
  1595                           ;main.c: 158:     ADCON0bits.GO = 1;
  1596  018C  1283               	bcf	3,5	;RP0=0, select bank0
  1597  018D  1303               	bcf	3,6	;RP1=0, select bank0
  1598  018E  149F               	bsf	31,1	;volatile
  1599                           
  1600                           ;main.c: 159:     while (ADCON0bits.GO == 1) {
  1601  018F  29EE               	goto	l1607
  1602  0190                     l1601:
  1603                           
  1604                           ;main.c: 160:         ADC_res = ADC_val(ADRESL, ADRESH);
  1605  0190  081E               	movf	30,w	;volatile
  1606  0191  00D4               	movwf	??_ADC_CH0
  1607  0192  0854               	movf	??_ADC_CH0,w
  1608  0193  00F0               	movwf	ADC_val@ADRES_H
  1609  0194  1683               	bsf	3,5	;RP0=1, select bank1
  1610  0195  1303               	bcf	3,6	;RP1=0, select bank1
  1611  0196  081E               	movf	30,w	;volatile
  1612  0197  120A  158A  27C9  120A  118A  	fcall	_ADC_val
  1613  019C  1283               	bcf	3,5	;RP0=0, select bank0
  1614  019D  1303               	bcf	3,6	;RP1=0, select bank0
  1615  019E  00D5               	movwf	??_ADC_CH0+1
  1616  019F  0855               	movf	??_ADC_CH0+1,w
  1617  01A0  00E2               	movwf	_ADC_res
  1618  01A1                     l1603:
  1619                           
  1620                           ;main.c: 161:         PORTB = ADC_res;
  1621  01A1  0862               	movf	_ADC_res,w
  1622  01A2  0086               	movwf	6	;volatile
  1623  01A3                     l1605:
  1624                           
  1625                           ;main.c: 162:         VAL1 = ((ADC_res * 5.0) / 255);
  1626  01A3  3043               	movlw	67
  1627  01A4  00BD               	movwf	___fldiv@a+3
  1628  01A5  307F               	movlw	127
  1629  01A6  00BC               	movwf	___fldiv@a+2
  1630  01A7  3000               	movlw	0
  1631  01A8  00BB               	movwf	___fldiv@a+1
  1632  01A9  3000               	movlw	0
  1633  01AA  00BA               	movwf	___fldiv@a
  1634  01AB  3040               	movlw	64
  1635  01AC  00A3               	movwf	___flmul@b+3
  1636  01AD  30A0               	movlw	160
  1637  01AE  00A2               	movwf	___flmul@b+2
  1638  01AF  3000               	movlw	0
  1639  01B0  00A1               	movwf	___flmul@b+1
  1640  01B1  3000               	movlw	0
  1641  01B2  00A0               	movwf	___flmul@b
  1642  01B3  0862               	movf	_ADC_res,w
  1643  01B4  00D4               	movwf	??_ADC_CH0
  1644  01B5  01D5               	clrf	??_ADC_CH0+1
  1645  01B6  01D6               	clrf	??_ADC_CH0+2
  1646  01B7  01D7               	clrf	??_ADC_CH0+3
  1647  01B8  0857               	movf	??_ADC_CH0+3,w
  1648  01B9  00F3               	movwf	___xxtofl@val+3
  1649  01BA  0856               	movf	??_ADC_CH0+2,w
  1650  01BB  00F2               	movwf	___xxtofl@val+2
  1651  01BC  0855               	movf	??_ADC_CH0+1,w
  1652  01BD  00F1               	movwf	___xxtofl@val+1
  1653  01BE  0854               	movf	??_ADC_CH0,w
  1654  01BF  00F0               	movwf	___xxtofl@val
  1655  01C0  3001               	movlw	1
  1656  01C1  120A  118A  21F3  120A  118A  	fcall	___xxtofl
  1657  01C6  0873               	movf	?___xxtofl+3,w
  1658  01C7  1283               	bcf	3,5	;RP0=0, select bank0
  1659  01C8  1303               	bcf	3,6	;RP1=0, select bank0
  1660  01C9  00A7               	movwf	___flmul@a+3
  1661  01CA  0872               	movf	?___xxtofl+2,w
  1662  01CB  00A6               	movwf	___flmul@a+2
  1663  01CC  0871               	movf	?___xxtofl+1,w
  1664  01CD  00A5               	movwf	___flmul@a+1
  1665  01CE  0870               	movf	?___xxtofl,w
  1666  01CF  00A4               	movwf	___flmul@a
  1667  01D0  120A  118A  248A  120A  118A  	fcall	___flmul
  1668  01D5  1283               	bcf	3,5	;RP0=0, select bank0
  1669  01D6  1303               	bcf	3,6	;RP1=0, select bank0
  1670  01D7  0823               	movf	?___flmul+3,w
  1671  01D8  00C1               	movwf	___fldiv@b+3
  1672  01D9  0822               	movf	?___flmul+2,w
  1673  01DA  00C0               	movwf	___fldiv@b+2
  1674  01DB  0821               	movf	?___flmul+1,w
  1675  01DC  00BF               	movwf	___fldiv@b+1
  1676  01DD  0820               	movf	?___flmul,w
  1677  01DE  00BE               	movwf	___fldiv@b
  1678  01DF  120A  118A  22AD  120A  118A  	fcall	___fldiv
  1679  01E4  1283               	bcf	3,5	;RP0=0, select bank0
  1680  01E5  1303               	bcf	3,6	;RP1=0, select bank0
  1681  01E6  083D               	movf	?___fldiv+3,w
  1682  01E7  00DE               	movwf	_VAL1+3
  1683  01E8  083C               	movf	?___fldiv+2,w
  1684  01E9  00DD               	movwf	_VAL1+2
  1685  01EA  083B               	movf	?___fldiv+1,w
  1686  01EB  00DC               	movwf	_VAL1+1
  1687  01EC  083A               	movf	?___fldiv,w
  1688  01ED  00DB               	movwf	_VAL1
  1689  01EE                     l1607:
  1690                           
  1691                           ;main.c: 159:     while (ADCON0bits.GO == 1) {
  1692  01EE  189F               	btfsc	31,1	;volatile
  1693  01EF  29F1               	goto	u1741
  1694  01F0  29F2               	goto	u1740
  1695  01F1                     u1741:
  1696  01F1  2990               	goto	l1601
  1697  01F2                     u1740:
  1698  01F2                     l83:
  1699  01F2  0008               	return
  1700  01F3                     __end_of_ADC_CH0:
  1701                           
  1702                           	psect	text10
  1703  01F3                     __ptext10:	
  1704 ;; *************** function ___xxtofl *****************
  1705 ;; Defined at:
  1706 ;;		line 10 in file "C:\Program Files\Microchip\xc8\v2.31\pic\sources\c90\common\xxtofl.c"
  1707 ;; Parameters:    Size  Location     Type
  1708 ;;  sign            1    wreg     unsigned char 
  1709 ;;  val             4    0[COMMON] long 
  1710 ;; Auto vars:     Size  Location     Type
  1711 ;;  sign            1    8[COMMON] unsigned char 
  1712 ;;  arg             4   10[COMMON] unsigned long 
  1713 ;;  exp             1    9[COMMON] unsigned char 
  1714 ;; Return value:  Size  Location     Type
  1715 ;;                  4    0[COMMON] unsigned char 
  1716 ;; Registers used:
  1717 ;;		wreg, status,2, status,0
  1718 ;; Tracked objects:
  1719 ;;		On entry : 0/0
  1720 ;;		On exit  : 0/0
  1721 ;;		Unchanged: 0/0
  1722 ;; Data sizes:     COMMON   BANK0   BANK1   BANK3   BANK2
  1723 ;;      Params:         4       0       0       0       0
  1724 ;;      Locals:         6       0       0       0       0
  1725 ;;      Temps:          4       0       0       0       0
  1726 ;;      Totals:        14       0       0       0       0
  1727 ;;Total ram usage:       14 bytes
  1728 ;; Hardware stack levels used:    1
  1729 ;; This function calls:
  1730 ;;		Nothing
  1731 ;; This function is called by:
  1732 ;;		_ADC_CH0
  1733 ;; This function uses a non-reentrant model
  1734 ;;
  1735                           
  1736                           
  1737                           ;psect for function ___xxtofl
  1738  01F3                     ___xxtofl:
  1739                           
  1740                           ;incstack = 0
  1741                           ; Regs used in ___xxtofl: [wreg+status,2+status,0]
  1742                           ;___xxtofl@sign stored from wreg
  1743  01F3  00F8               	movwf	___xxtofl@sign
  1744  01F4                     l1531:
  1745  01F4  0878               	movf	___xxtofl@sign,w
  1746  01F5  1903               	btfsc	3,2
  1747  01F6  29F8               	goto	u1571
  1748  01F7  29F9               	goto	u1570
  1749  01F8                     u1571:
  1750  01F8  2A0D               	goto	l1537
  1751  01F9                     u1570:
  1752  01F9                     l1533:
  1753  01F9  1FF3               	btfss	___xxtofl@val+3,7
  1754  01FA  29FC               	goto	u1581
  1755  01FB  29FD               	goto	u1580
  1756  01FC                     u1581:
  1757  01FC  2A0D               	goto	l1537
  1758  01FD                     u1580:
  1759  01FD                     l1535:
  1760  01FD  0970               	comf	___xxtofl@val,w
  1761  01FE  00FA               	movwf	___xxtofl@arg
  1762  01FF  0971               	comf	___xxtofl@val+1,w
  1763  0200  00FB               	movwf	___xxtofl@arg+1
  1764  0201  0972               	comf	___xxtofl@val+2,w
  1765  0202  00FC               	movwf	___xxtofl@arg+2
  1766  0203  0973               	comf	___xxtofl@val+3,w
  1767  0204  00FD               	movwf	___xxtofl@arg+3
  1768  0205  0AFA               	incf	___xxtofl@arg,f
  1769  0206  1903               	skipnz
  1770  0207  0AFB               	incf	___xxtofl@arg+1,f
  1771  0208  1903               	skipnz
  1772  0209  0AFC               	incf	___xxtofl@arg+2,f
  1773  020A  1903               	skipnz
  1774  020B  0AFD               	incf	___xxtofl@arg+3,f
  1775  020C  2A15               	goto	l664
  1776  020D                     l1537:
  1777  020D  0873               	movf	___xxtofl@val+3,w
  1778  020E  00FD               	movwf	___xxtofl@arg+3
  1779  020F  0872               	movf	___xxtofl@val+2,w
  1780  0210  00FC               	movwf	___xxtofl@arg+2
  1781  0211  0871               	movf	___xxtofl@val+1,w
  1782  0212  00FB               	movwf	___xxtofl@arg+1
  1783  0213  0870               	movf	___xxtofl@val,w
  1784  0214  00FA               	movwf	___xxtofl@arg
  1785  0215                     l664:
  1786  0215  0873               	movf	___xxtofl@val+3,w
  1787  0216  0472               	iorwf	___xxtofl@val+2,w
  1788  0217  0471               	iorwf	___xxtofl@val+1,w
  1789  0218  0470               	iorwf	___xxtofl@val,w
  1790  0219  1D03               	skipz
  1791  021A  2A1C               	goto	u1591
  1792  021B  2A1D               	goto	u1590
  1793  021C                     u1591:
  1794  021C  2A26               	goto	l1543
  1795  021D                     u1590:
  1796  021D                     l1539:
  1797  021D  3000               	movlw	0
  1798  021E  00F3               	movwf	?___xxtofl+3
  1799  021F  3000               	movlw	0
  1800  0220  00F2               	movwf	?___xxtofl+2
  1801  0221  3000               	movlw	0
  1802  0222  00F1               	movwf	?___xxtofl+1
  1803  0223  3000               	movlw	0
  1804  0224  00F0               	movwf	?___xxtofl
  1805  0225  2AAC               	goto	l666
  1806  0226                     l1543:
  1807  0226  3096               	movlw	150
  1808  0227  00F4               	movwf	??___xxtofl
  1809  0228  0874               	movf	??___xxtofl,w
  1810  0229  00F9               	movwf	___xxtofl@exp
  1811  022A  2A38               	goto	l1547
  1812  022B                     l1545:
  1813  022B  3001               	movlw	1
  1814  022C  00F4               	movwf	??___xxtofl
  1815  022D  0874               	movf	??___xxtofl,w
  1816  022E  07F9               	addwf	___xxtofl@exp,f
  1817  022F  3001               	movlw	1
  1818  0230                     u1605:
  1819  0230  1003               	clrc
  1820  0231  0CFD               	rrf	___xxtofl@arg+3,f
  1821  0232  0CFC               	rrf	___xxtofl@arg+2,f
  1822  0233  0CFB               	rrf	___xxtofl@arg+1,f
  1823  0234  0CFA               	rrf	___xxtofl@arg,f
  1824  0235  3EFF               	addlw	-1
  1825  0236  1D03               	skipz
  1826  0237  2A30               	goto	u1605
  1827  0238                     l1547:
  1828  0238  30FE               	movlw	254
  1829  0239  057D               	andwf	___xxtofl@arg+3,w
  1830  023A  1D03               	btfss	3,2
  1831  023B  2A3D               	goto	u1611
  1832  023C  2A3E               	goto	u1610
  1833  023D                     u1611:
  1834  023D  2A2B               	goto	l1545
  1835  023E                     u1610:
  1836  023E  2A5A               	goto	l670
  1837  023F                     l1549:
  1838  023F  3001               	movlw	1
  1839  0240  00F4               	movwf	??___xxtofl
  1840  0241  0874               	movf	??___xxtofl,w
  1841  0242  07F9               	addwf	___xxtofl@exp,f
  1842  0243                     l1551:
  1843  0243  3001               	movlw	1
  1844  0244  07FA               	addwf	___xxtofl@arg,f
  1845  0245  3000               	movlw	0
  1846  0246  1803               	skipnc
  1847  0247  3001               	movlw	1
  1848  0248  07FB               	addwf	___xxtofl@arg+1,f
  1849  0249  3000               	movlw	0
  1850  024A  1803               	skipnc
  1851  024B  3001               	movlw	1
  1852  024C  07FC               	addwf	___xxtofl@arg+2,f
  1853  024D  3000               	movlw	0
  1854  024E  1803               	skipnc
  1855  024F  3001               	movlw	1
  1856  0250  07FD               	addwf	___xxtofl@arg+3,f
  1857  0251                     l1553:
  1858  0251  3001               	movlw	1
  1859  0252                     u1625:
  1860  0252  1003               	clrc
  1861  0253  0CFD               	rrf	___xxtofl@arg+3,f
  1862  0254  0CFC               	rrf	___xxtofl@arg+2,f
  1863  0255  0CFB               	rrf	___xxtofl@arg+1,f
  1864  0256  0CFA               	rrf	___xxtofl@arg,f
  1865  0257  3EFF               	addlw	-1
  1866  0258  1D03               	skipz
  1867  0259  2A52               	goto	u1625
  1868  025A                     l670:
  1869  025A  30FF               	movlw	255
  1870  025B  057D               	andwf	___xxtofl@arg+3,w
  1871  025C  1D03               	btfss	3,2
  1872  025D  2A5F               	goto	u1631
  1873  025E  2A60               	goto	u1630
  1874  025F                     u1631:
  1875  025F  2A3F               	goto	l1549
  1876  0260                     u1630:
  1877  0260  2A6C               	goto	l1557
  1878  0261                     l1555:
  1879  0261  3001               	movlw	1
  1880  0262  02F9               	subwf	___xxtofl@exp,f
  1881  0263  3001               	movlw	1
  1882  0264  00F4               	movwf	??___xxtofl
  1883  0265                     u1645:
  1884  0265  1003               	clrc
  1885  0266  0DFA               	rlf	___xxtofl@arg,f
  1886  0267  0DFB               	rlf	___xxtofl@arg+1,f
  1887  0268  0DFC               	rlf	___xxtofl@arg+2,f
  1888  0269  0DFD               	rlf	___xxtofl@arg+3,f
  1889  026A  0BF4               	decfsz	??___xxtofl,f
  1890  026B  2A65               	goto	u1645
  1891  026C                     l1557:
  1892  026C  1BFC               	btfsc	___xxtofl@arg+2,7
  1893  026D  2A6F               	goto	u1651
  1894  026E  2A70               	goto	u1650
  1895  026F                     u1651:
  1896  026F  2A76               	goto	l677
  1897  0270                     u1650:
  1898  0270                     l1559:
  1899  0270  3002               	movlw	2
  1900  0271  0279               	subwf	___xxtofl@exp,w
  1901  0272  1803               	skipnc
  1902  0273  2A75               	goto	u1661
  1903  0274  2A76               	goto	u1660
  1904  0275                     u1661:
  1905  0275  2A61               	goto	l1555
  1906  0276                     u1660:
  1907  0276                     l677:
  1908  0276  1879               	btfsc	___xxtofl@exp,0
  1909  0277  2A79               	goto	u1671
  1910  0278  2A7A               	goto	u1670
  1911  0279                     u1671:
  1912  0279  2A82               	goto	l678
  1913  027A                     u1670:
  1914  027A                     l1561:
  1915  027A  30FF               	movlw	255
  1916  027B  05FA               	andwf	___xxtofl@arg,f
  1917  027C  30FF               	movlw	255
  1918  027D  05FB               	andwf	___xxtofl@arg+1,f
  1919  027E  307F               	movlw	127
  1920  027F  05FC               	andwf	___xxtofl@arg+2,f
  1921  0280  30FF               	movlw	255
  1922  0281  05FD               	andwf	___xxtofl@arg+3,f
  1923  0282                     l678:
  1924  0282  1003               	clrc
  1925  0283  0CF9               	rrf	___xxtofl@exp,f
  1926  0284                     l1563:
  1927  0284  0879               	movf	___xxtofl@exp,w
  1928  0285  00F4               	movwf	??___xxtofl
  1929  0286  01F5               	clrf	??___xxtofl+1
  1930  0287  01F6               	clrf	??___xxtofl+2
  1931  0288  01F7               	clrf	??___xxtofl+3
  1932  0289  3018               	movlw	24
  1933  028A                     u1685:
  1934  028A  1003               	clrc
  1935  028B  0DF4               	rlf	??___xxtofl,f
  1936  028C  0DF5               	rlf	??___xxtofl+1,f
  1937  028D  0DF6               	rlf	??___xxtofl+2,f
  1938  028E  0DF7               	rlf	??___xxtofl+3,f
  1939  028F                     u1680:
  1940  028F  3EFF               	addlw	-1
  1941  0290  1D03               	skipz
  1942  0291  2A8A               	goto	u1685
  1943  0292  0874               	movf	??___xxtofl,w
  1944  0293  04FA               	iorwf	___xxtofl@arg,f
  1945  0294  0875               	movf	??___xxtofl+1,w
  1946  0295  04FB               	iorwf	___xxtofl@arg+1,f
  1947  0296  0876               	movf	??___xxtofl+2,w
  1948  0297  04FC               	iorwf	___xxtofl@arg+2,f
  1949  0298  0877               	movf	??___xxtofl+3,w
  1950  0299  04FD               	iorwf	___xxtofl@arg+3,f
  1951  029A                     l1565:
  1952  029A  0878               	movf	___xxtofl@sign,w
  1953  029B  1903               	btfsc	3,2
  1954  029C  2A9E               	goto	u1691
  1955  029D  2A9F               	goto	u1690
  1956  029E                     u1691:
  1957  029E  2AA4               	goto	l1571
  1958  029F                     u1690:
  1959  029F                     l1567:
  1960  029F  1FF3               	btfss	___xxtofl@val+3,7
  1961  02A0  2AA2               	goto	u1701
  1962  02A1  2AA3               	goto	u1700
  1963  02A2                     u1701:
  1964  02A2  2AA4               	goto	l1571
  1965  02A3                     u1700:
  1966  02A3                     l1569:
  1967  02A3  17FD               	bsf	___xxtofl@arg+3,7
  1968  02A4                     l1571:
  1969  02A4  087D               	movf	___xxtofl@arg+3,w
  1970  02A5  00F3               	movwf	?___xxtofl+3
  1971  02A6  087C               	movf	___xxtofl@arg+2,w
  1972  02A7  00F2               	movwf	?___xxtofl+2
  1973  02A8  087B               	movf	___xxtofl@arg+1,w
  1974  02A9  00F1               	movwf	?___xxtofl+1
  1975  02AA  087A               	movf	___xxtofl@arg,w
  1976  02AB  00F0               	movwf	?___xxtofl
  1977  02AC                     l666:
  1978  02AC  0008               	return
  1979  02AD                     __end_of___xxtofl:
  1980                           
  1981                           	psect	text11
  1982  048A                     __ptext11:	
  1983 ;; *************** function ___flmul *****************
  1984 ;; Defined at:
  1985 ;;		line 8 in file "C:\Program Files\Microchip\xc8\v2.31\pic\sources\c90\common\sprcmul.c"
  1986 ;; Parameters:    Size  Location     Type
  1987 ;;  b               4    0[BANK0 ] unsigned char 
  1988 ;;  a               4    4[BANK0 ] unsigned char 
  1989 ;; Auto vars:     Size  Location     Type
  1990 ;;  prod            4   20[BANK0 ] struct .
  1991 ;;  grs             4   14[BANK0 ] unsigned long 
  1992 ;;  temp            2   24[BANK0 ] struct .
  1993 ;;  bexp            1   19[BANK0 ] unsigned char 
  1994 ;;  aexp            1   18[BANK0 ] unsigned char 
  1995 ;;  sign            1   13[BANK0 ] unsigned char 
  1996 ;; Return value:  Size  Location     Type
  1997 ;;                  4    0[BANK0 ] unsigned char 
  1998 ;; Registers used:
  1999 ;;		wreg, status,2, status,0, btemp+1, pclath, cstack
  2000 ;; Tracked objects:
  2001 ;;		On entry : 0/0
  2002 ;;		On exit  : 0/0
  2003 ;;		Unchanged: 0/0
  2004 ;; Data sizes:     COMMON   BANK0   BANK1   BANK3   BANK2
  2005 ;;      Params:         0       8       0       0       0
  2006 ;;      Locals:         0      13       0       0       0
  2007 ;;      Temps:          0       5       0       0       0
  2008 ;;      Totals:         0      26       0       0       0
  2009 ;;Total ram usage:       26 bytes
  2010 ;; Hardware stack levels used:    1
  2011 ;; Hardware stack levels required when called:    1
  2012 ;; This function calls:
  2013 ;;		__Umul8_16
  2014 ;; This function is called by:
  2015 ;;		_ADC_CH0
  2016 ;; This function uses a non-reentrant model
  2017 ;;
  2018                           
  2019                           
  2020                           ;psect for function ___flmul
  2021  048A                     ___flmul:
  2022  048A                     l1391:	
  2023                           ;incstack = 0
  2024                           ; Regs used in ___flmul: [wreg+status,2+status,0+btemp+1+pclath+cstack]
  2025                           
  2026  048A  1283               	bcf	3,5	;RP0=0, select bank0
  2027  048B  1303               	bcf	3,6	;RP1=0, select bank0
  2028  048C  0823               	movf	___flmul@b+3,w
  2029  048D  3980               	andlw	128
  2030  048E  00A8               	movwf	??___flmul
  2031  048F  0828               	movf	??___flmul,w
  2032  0490  00AD               	movwf	___flmul@sign
  2033  0491                     l1393:
  2034  0491  0823               	movf	___flmul@b+3,w
  2035  0492  00A8               	movwf	??___flmul
  2036  0493  0728               	addwf	??___flmul,w
  2037  0494  00A9               	movwf	??___flmul+1
  2038  0495  0829               	movf	??___flmul+1,w
  2039  0496  00B3               	movwf	___flmul@bexp
  2040  0497                     l1395:
  2041  0497  1FA2               	btfss	___flmul@b+2,7
  2042  0498  2C9A               	goto	u1201
  2043  0499  2C9B               	goto	u1200
  2044  049A                     u1201:
  2045  049A  2C9C               	goto	l1399
  2046  049B                     u1200:
  2047  049B                     l1397:
  2048  049B  1433               	bsf	___flmul@bexp,0
  2049  049C                     l1399:
  2050  049C  0833               	movf	___flmul@bexp,w
  2051  049D  1903               	btfsc	3,2
  2052  049E  2CA0               	goto	u1211
  2053  049F  2CA1               	goto	u1210
  2054  04A0                     u1211:
  2055  04A0  2CB0               	goto	l1407
  2056  04A1                     u1210:
  2057  04A1                     l1401:
  2058  04A1  0A33               	incf	___flmul@bexp,w
  2059  04A2  1D03               	btfss	3,2
  2060  04A3  2CA5               	goto	u1221
  2061  04A4  2CA6               	goto	u1220
  2062  04A5                     u1221:
  2063  04A5  2CAE               	goto	l1405
  2064  04A6                     u1220:
  2065  04A6                     l1403:
  2066  04A6  3000               	movlw	0
  2067  04A7  00A3               	movwf	___flmul@b+3
  2068  04A8  3000               	movlw	0
  2069  04A9  00A2               	movwf	___flmul@b+2
  2070  04AA  3000               	movlw	0
  2071  04AB  00A1               	movwf	___flmul@b+1
  2072  04AC  3000               	movlw	0
  2073  04AD  00A0               	movwf	___flmul@b
  2074  04AE                     l1405:
  2075  04AE  17A2               	bsf	___flmul@b+2,7
  2076  04AF  2CB8               	goto	l1409
  2077  04B0                     l1407:
  2078  04B0  3000               	movlw	0
  2079  04B1  00A3               	movwf	___flmul@b+3
  2080  04B2  3000               	movlw	0
  2081  04B3  00A2               	movwf	___flmul@b+2
  2082  04B4  3000               	movlw	0
  2083  04B5  00A1               	movwf	___flmul@b+1
  2084  04B6  3000               	movlw	0
  2085  04B7  00A0               	movwf	___flmul@b
  2086  04B8                     l1409:
  2087  04B8  0827               	movf	___flmul@a+3,w
  2088  04B9  3980               	andlw	128
  2089  04BA  00A8               	movwf	??___flmul
  2090  04BB  0828               	movf	??___flmul,w
  2091  04BC  06AD               	xorwf	___flmul@sign,f
  2092  04BD                     l1411:
  2093  04BD  0827               	movf	___flmul@a+3,w
  2094  04BE  00A8               	movwf	??___flmul
  2095  04BF  0728               	addwf	??___flmul,w
  2096  04C0  00A9               	movwf	??___flmul+1
  2097  04C1  0829               	movf	??___flmul+1,w
  2098  04C2  00B2               	movwf	___flmul@aexp
  2099  04C3                     l1413:
  2100  04C3  1FA6               	btfss	___flmul@a+2,7
  2101  04C4  2CC6               	goto	u1231
  2102  04C5  2CC7               	goto	u1230
  2103  04C6                     u1231:
  2104  04C6  2CC8               	goto	l1417
  2105  04C7                     u1230:
  2106  04C7                     l1415:
  2107  04C7  1432               	bsf	___flmul@aexp,0
  2108  04C8                     l1417:
  2109  04C8  0832               	movf	___flmul@aexp,w
  2110  04C9  1903               	btfsc	3,2
  2111  04CA  2CCC               	goto	u1241
  2112  04CB  2CCD               	goto	u1240
  2113  04CC                     u1241:
  2114  04CC  2CDC               	goto	l1425
  2115  04CD                     u1240:
  2116  04CD                     l1419:
  2117  04CD  0A32               	incf	___flmul@aexp,w
  2118  04CE  1D03               	btfss	3,2
  2119  04CF  2CD1               	goto	u1251
  2120  04D0  2CD2               	goto	u1250
  2121  04D1                     u1251:
  2122  04D1  2CDA               	goto	l1423
  2123  04D2                     u1250:
  2124  04D2                     l1421:
  2125  04D2  3000               	movlw	0
  2126  04D3  00A7               	movwf	___flmul@a+3
  2127  04D4  3000               	movlw	0
  2128  04D5  00A6               	movwf	___flmul@a+2
  2129  04D6  3000               	movlw	0
  2130  04D7  00A5               	movwf	___flmul@a+1
  2131  04D8  3000               	movlw	0
  2132  04D9  00A4               	movwf	___flmul@a
  2133  04DA                     l1423:
  2134  04DA  17A6               	bsf	___flmul@a+2,7
  2135  04DB  2CE4               	goto	l1427
  2136  04DC                     l1425:
  2137  04DC  3000               	movlw	0
  2138  04DD  00A7               	movwf	___flmul@a+3
  2139  04DE  3000               	movlw	0
  2140  04DF  00A6               	movwf	___flmul@a+2
  2141  04E0  3000               	movlw	0
  2142  04E1  00A5               	movwf	___flmul@a+1
  2143  04E2  3000               	movlw	0
  2144  04E3  00A4               	movwf	___flmul@a
  2145  04E4                     l1427:
  2146  04E4  0832               	movf	___flmul@aexp,w
  2147  04E5  1903               	btfsc	3,2
  2148  04E6  2CE8               	goto	u1261
  2149  04E7  2CE9               	goto	u1260
  2150  04E8                     u1261:
  2151  04E8  2CEE               	goto	l1431
  2152  04E9                     u1260:
  2153  04E9                     l1429:
  2154  04E9  0833               	movf	___flmul@bexp,w
  2155  04EA  1D03               	btfss	3,2
  2156  04EB  2CED               	goto	u1271
  2157  04EC  2CEE               	goto	u1270
  2158  04ED                     u1271:
  2159  04ED  2CF7               	goto	l1435
  2160  04EE                     u1270:
  2161  04EE                     l1431:
  2162  04EE  3000               	movlw	0
  2163  04EF  00A3               	movwf	?___flmul+3
  2164  04F0  3000               	movlw	0
  2165  04F1  00A2               	movwf	?___flmul+2
  2166  04F2  3000               	movlw	0
  2167  04F3  00A1               	movwf	?___flmul+1
  2168  04F4  3000               	movlw	0
  2169  04F5  00A0               	movwf	?___flmul
  2170  04F6  2FEA               	goto	l620
  2171  04F7                     l1435:
  2172  04F7  0820               	movf	___flmul@b,w
  2173  04F8  00A8               	movwf	??___flmul
  2174  04F9  0828               	movf	??___flmul,w
  2175  04FA  00F0               	movwf	__Umul8_16@multiplicand
  2176  04FB  0826               	movf	___flmul@a+2,w
  2177  04FC  120A  118A  20AF  120A  118A  	fcall	__Umul8_16
  2178  0501  0871               	movf	?__Umul8_16+1,w
  2179  0502  1283               	bcf	3,5	;RP0=0, select bank0
  2180  0503  1303               	bcf	3,6	;RP1=0, select bank0
  2181  0504  00B9               	movwf	___flmul@temp+1
  2182  0505  0870               	movf	?__Umul8_16,w
  2183  0506  00B8               	movwf	___flmul@temp
  2184  0507                     l1437:
  2185  0507  0838               	movf	___flmul@temp,w
  2186  0508  00A8               	movwf	??___flmul
  2187  0509  01A9               	clrf	??___flmul+1
  2188  050A  01AA               	clrf	??___flmul+2
  2189  050B  01AB               	clrf	??___flmul+3
  2190  050C  082B               	movf	??___flmul+3,w
  2191  050D  00B1               	movwf	___flmul@grs+3
  2192  050E  082A               	movf	??___flmul+2,w
  2193  050F  00B0               	movwf	___flmul@grs+2
  2194  0510  0829               	movf	??___flmul+1,w
  2195  0511  00AF               	movwf	___flmul@grs+1
  2196  0512  0828               	movf	??___flmul,w
  2197  0513  00AE               	movwf	___flmul@grs
  2198  0514                     l1439:
  2199  0514  0839               	movf	___flmul@temp+1,w
  2200  0515  00A8               	movwf	??___flmul
  2201  0516  01A9               	clrf	??___flmul+1
  2202  0517  01AA               	clrf	??___flmul+2
  2203  0518  01AB               	clrf	??___flmul+3
  2204  0519  082B               	movf	??___flmul+3,w
  2205  051A  00B7               	movwf	___flmul@prod+3
  2206  051B  082A               	movf	??___flmul+2,w
  2207  051C  00B6               	movwf	___flmul@prod+2
  2208  051D  0829               	movf	??___flmul+1,w
  2209  051E  00B5               	movwf	___flmul@prod+1
  2210  051F  0828               	movf	??___flmul,w
  2211  0520  00B4               	movwf	___flmul@prod
  2212  0521  0821               	movf	___flmul@b+1,w
  2213  0522  00A8               	movwf	??___flmul
  2214  0523  0828               	movf	??___flmul,w
  2215  0524  00F0               	movwf	__Umul8_16@multiplicand
  2216  0525  0825               	movf	___flmul@a+1,w
  2217  0526  120A  118A  20AF  120A  118A  	fcall	__Umul8_16
  2218  052B  0871               	movf	?__Umul8_16+1,w
  2219  052C  1283               	bcf	3,5	;RP0=0, select bank0
  2220  052D  1303               	bcf	3,6	;RP1=0, select bank0
  2221  052E  00B9               	movwf	___flmul@temp+1
  2222  052F  0870               	movf	?__Umul8_16,w
  2223  0530  00B8               	movwf	___flmul@temp
  2224  0531                     l1441:
  2225  0531  0838               	movf	___flmul@temp,w
  2226  0532  00A8               	movwf	??___flmul
  2227  0533  01A9               	clrf	??___flmul+1
  2228  0534  01AA               	clrf	??___flmul+2
  2229  0535  01AB               	clrf	??___flmul+3
  2230  0536  0828               	movf	??___flmul,w
  2231  0537  07AE               	addwf	___flmul@grs,f
  2232  0538  0829               	movf	??___flmul+1,w
  2233  0539  1103               	clrz
  2234  053A  1803               	skipnc
  2235  053B  3E01               	addlw	1
  2236  053C  1903               	skipnz
  2237  053D  2D3F               	goto	u1281
  2238  053E  07AF               	addwf	___flmul@grs+1,f
  2239  053F                     u1281:
  2240  053F  082A               	movf	??___flmul+2,w
  2241  0540  1103               	clrz
  2242  0541  1803               	skipnc
  2243  0542  3E01               	addlw	1
  2244  0543  1903               	skipnz
  2245  0544  2D46               	goto	u1282
  2246  0545  07B0               	addwf	___flmul@grs+2,f
  2247  0546                     u1282:
  2248  0546  082B               	movf	??___flmul+3,w
  2249  0547  1103               	clrz
  2250  0548  1803               	skipnc
  2251  0549  3E01               	addlw	1
  2252  054A  1903               	skipnz
  2253  054B  2D4D               	goto	u1283
  2254  054C  07B1               	addwf	___flmul@grs+3,f
  2255  054D                     u1283:
  2256  054D                     l1443:
  2257  054D  0839               	movf	___flmul@temp+1,w
  2258  054E  00A8               	movwf	??___flmul
  2259  054F  01A9               	clrf	??___flmul+1
  2260  0550  01AA               	clrf	??___flmul+2
  2261  0551  01AB               	clrf	??___flmul+3
  2262  0552  0828               	movf	??___flmul,w
  2263  0553  07B4               	addwf	___flmul@prod,f
  2264  0554  0829               	movf	??___flmul+1,w
  2265  0555  1103               	clrz
  2266  0556  1803               	skipnc
  2267  0557  3E01               	addlw	1
  2268  0558  1903               	skipnz
  2269  0559  2D5B               	goto	u1291
  2270  055A  07B5               	addwf	___flmul@prod+1,f
  2271  055B                     u1291:
  2272  055B  082A               	movf	??___flmul+2,w
  2273  055C  1103               	clrz
  2274  055D  1803               	skipnc
  2275  055E  3E01               	addlw	1
  2276  055F  1903               	skipnz
  2277  0560  2D62               	goto	u1292
  2278  0561  07B6               	addwf	___flmul@prod+2,f
  2279  0562                     u1292:
  2280  0562  082B               	movf	??___flmul+3,w
  2281  0563  1103               	clrz
  2282  0564  1803               	skipnc
  2283  0565  3E01               	addlw	1
  2284  0566  1903               	skipnz
  2285  0567  2D69               	goto	u1293
  2286  0568  07B7               	addwf	___flmul@prod+3,f
  2287  0569                     u1293:
  2288  0569  0822               	movf	___flmul@b+2,w
  2289  056A  00A8               	movwf	??___flmul
  2290  056B  0828               	movf	??___flmul,w
  2291  056C  00F0               	movwf	__Umul8_16@multiplicand
  2292  056D  0824               	movf	___flmul@a,w
  2293  056E  120A  118A  20AF  120A  118A  	fcall	__Umul8_16
  2294  0573  0871               	movf	?__Umul8_16+1,w
  2295  0574  1283               	bcf	3,5	;RP0=0, select bank0
  2296  0575  1303               	bcf	3,6	;RP1=0, select bank0
  2297  0576  00B9               	movwf	___flmul@temp+1
  2298  0577  0870               	movf	?__Umul8_16,w
  2299  0578  00B8               	movwf	___flmul@temp
  2300  0579                     l1445:
  2301  0579  0838               	movf	___flmul@temp,w
  2302  057A  00A8               	movwf	??___flmul
  2303  057B  01A9               	clrf	??___flmul+1
  2304  057C  01AA               	clrf	??___flmul+2
  2305  057D  01AB               	clrf	??___flmul+3
  2306  057E  0828               	movf	??___flmul,w
  2307  057F  07AE               	addwf	___flmul@grs,f
  2308  0580  0829               	movf	??___flmul+1,w
  2309  0581  1103               	clrz
  2310  0582  1803               	skipnc
  2311  0583  3E01               	addlw	1
  2312  0584  1903               	skipnz
  2313  0585  2D87               	goto	u1301
  2314  0586  07AF               	addwf	___flmul@grs+1,f
  2315  0587                     u1301:
  2316  0587  082A               	movf	??___flmul+2,w
  2317  0588  1103               	clrz
  2318  0589  1803               	skipnc
  2319  058A  3E01               	addlw	1
  2320  058B  1903               	skipnz
  2321  058C  2D8E               	goto	u1302
  2322  058D  07B0               	addwf	___flmul@grs+2,f
  2323  058E                     u1302:
  2324  058E  082B               	movf	??___flmul+3,w
  2325  058F  1103               	clrz
  2326  0590  1803               	skipnc
  2327  0591  3E01               	addlw	1
  2328  0592  1903               	skipnz
  2329  0593  2D95               	goto	u1303
  2330  0594  07B1               	addwf	___flmul@grs+3,f
  2331  0595                     u1303:
  2332  0595                     l1447:
  2333  0595  0839               	movf	___flmul@temp+1,w
  2334  0596  00A8               	movwf	??___flmul
  2335  0597  01A9               	clrf	??___flmul+1
  2336  0598  01AA               	clrf	??___flmul+2
  2337  0599  01AB               	clrf	??___flmul+3
  2338  059A  0828               	movf	??___flmul,w
  2339  059B  07B4               	addwf	___flmul@prod,f
  2340  059C  0829               	movf	??___flmul+1,w
  2341  059D  1103               	clrz
  2342  059E  1803               	skipnc
  2343  059F  3E01               	addlw	1
  2344  05A0  1903               	skipnz
  2345  05A1  2DA3               	goto	u1311
  2346  05A2  07B5               	addwf	___flmul@prod+1,f
  2347  05A3                     u1311:
  2348  05A3  082A               	movf	??___flmul+2,w
  2349  05A4  1103               	clrz
  2350  05A5  1803               	skipnc
  2351  05A6  3E01               	addlw	1
  2352  05A7  1903               	skipnz
  2353  05A8  2DAA               	goto	u1312
  2354  05A9  07B6               	addwf	___flmul@prod+2,f
  2355  05AA                     u1312:
  2356  05AA  082B               	movf	??___flmul+3,w
  2357  05AB  1103               	clrz
  2358  05AC  1803               	skipnc
  2359  05AD  3E01               	addlw	1
  2360  05AE  1903               	skipnz
  2361  05AF  2DB1               	goto	u1313
  2362  05B0  07B7               	addwf	___flmul@prod+3,f
  2363  05B1                     u1313:
  2364  05B1                     l1449:
  2365  05B1  3008               	movlw	8
  2366  05B2  00A8               	movwf	??___flmul
  2367  05B3                     u1325:
  2368  05B3  1003               	clrc
  2369  05B4  0DAE               	rlf	___flmul@grs,f
  2370  05B5  0DAF               	rlf	___flmul@grs+1,f
  2371  05B6  0DB0               	rlf	___flmul@grs+2,f
  2372  05B7  0DB1               	rlf	___flmul@grs+3,f
  2373  05B8  0BA8               	decfsz	??___flmul,f
  2374  05B9  2DB3               	goto	u1325
  2375  05BA                     l1451:
  2376  05BA  0821               	movf	___flmul@b+1,w
  2377  05BB  00A8               	movwf	??___flmul
  2378  05BC  0828               	movf	??___flmul,w
  2379  05BD  00F0               	movwf	__Umul8_16@multiplicand
  2380  05BE  0824               	movf	___flmul@a,w
  2381  05BF  120A  118A  20AF  120A  118A  	fcall	__Umul8_16
  2382  05C4  0871               	movf	?__Umul8_16+1,w
  2383  05C5  1283               	bcf	3,5	;RP0=0, select bank0
  2384  05C6  1303               	bcf	3,6	;RP1=0, select bank0
  2385  05C7  00B9               	movwf	___flmul@temp+1
  2386  05C8  0870               	movf	?__Umul8_16,w
  2387  05C9  00B8               	movwf	___flmul@temp
  2388  05CA                     l1453:
  2389  05CA  0838               	movf	___flmul@temp,w
  2390  05CB  00A8               	movwf	??___flmul
  2391  05CC  0839               	movf	___flmul@temp+1,w
  2392  05CD  00A9               	movwf	??___flmul+1
  2393  05CE  01AA               	clrf	??___flmul+2
  2394  05CF  01AB               	clrf	??___flmul+3
  2395  05D0  0828               	movf	??___flmul,w
  2396  05D1  07AE               	addwf	___flmul@grs,f
  2397  05D2  0829               	movf	??___flmul+1,w
  2398  05D3  1103               	clrz
  2399  05D4  1803               	skipnc
  2400  05D5  3E01               	addlw	1
  2401  05D6  1903               	skipnz
  2402  05D7  2DD9               	goto	u1331
  2403  05D8  07AF               	addwf	___flmul@grs+1,f
  2404  05D9                     u1331:
  2405  05D9  082A               	movf	??___flmul+2,w
  2406  05DA  1103               	clrz
  2407  05DB  1803               	skipnc
  2408  05DC  3E01               	addlw	1
  2409  05DD  1903               	skipnz
  2410  05DE  2DE0               	goto	u1332
  2411  05DF  07B0               	addwf	___flmul@grs+2,f
  2412  05E0                     u1332:
  2413  05E0  082B               	movf	??___flmul+3,w
  2414  05E1  1103               	clrz
  2415  05E2  1803               	skipnc
  2416  05E3  3E01               	addlw	1
  2417  05E4  1903               	skipnz
  2418  05E5  2DE7               	goto	u1333
  2419  05E6  07B1               	addwf	___flmul@grs+3,f
  2420  05E7                     u1333:
  2421  05E7                     l1455:
  2422  05E7  0820               	movf	___flmul@b,w
  2423  05E8  00A8               	movwf	??___flmul
  2424  05E9  0828               	movf	??___flmul,w
  2425  05EA  00F0               	movwf	__Umul8_16@multiplicand
  2426  05EB  0825               	movf	___flmul@a+1,w
  2427  05EC  120A  118A  20AF  120A  118A  	fcall	__Umul8_16
  2428  05F1  0871               	movf	?__Umul8_16+1,w
  2429  05F2  1283               	bcf	3,5	;RP0=0, select bank0
  2430  05F3  1303               	bcf	3,6	;RP1=0, select bank0
  2431  05F4  00B9               	movwf	___flmul@temp+1
  2432  05F5  0870               	movf	?__Umul8_16,w
  2433  05F6  00B8               	movwf	___flmul@temp
  2434  05F7                     l1457:
  2435  05F7  0838               	movf	___flmul@temp,w
  2436  05F8  00A8               	movwf	??___flmul
  2437  05F9  0839               	movf	___flmul@temp+1,w
  2438  05FA  00A9               	movwf	??___flmul+1
  2439  05FB  01AA               	clrf	??___flmul+2
  2440  05FC  01AB               	clrf	??___flmul+3
  2441  05FD  0828               	movf	??___flmul,w
  2442  05FE  07AE               	addwf	___flmul@grs,f
  2443  05FF  0829               	movf	??___flmul+1,w
  2444  0600  1103               	clrz
  2445  0601  1803               	skipnc
  2446  0602  3E01               	addlw	1
  2447  0603  1903               	skipnz
  2448  0604  2E06               	goto	u1341
  2449  0605  07AF               	addwf	___flmul@grs+1,f
  2450  0606                     u1341:
  2451  0606  082A               	movf	??___flmul+2,w
  2452  0607  1103               	clrz
  2453  0608  1803               	skipnc
  2454  0609  3E01               	addlw	1
  2455  060A  1903               	skipnz
  2456  060B  2E0D               	goto	u1342
  2457  060C  07B0               	addwf	___flmul@grs+2,f
  2458  060D                     u1342:
  2459  060D  082B               	movf	??___flmul+3,w
  2460  060E  1103               	clrz
  2461  060F  1803               	skipnc
  2462  0610  3E01               	addlw	1
  2463  0611  1903               	skipnz
  2464  0612  2E14               	goto	u1343
  2465  0613  07B1               	addwf	___flmul@grs+3,f
  2466  0614                     u1343:
  2467  0614                     l1459:
  2468  0614  3008               	movlw	8
  2469  0615  00A8               	movwf	??___flmul
  2470  0616                     u1355:
  2471  0616  1003               	clrc
  2472  0617  0DAE               	rlf	___flmul@grs,f
  2473  0618  0DAF               	rlf	___flmul@grs+1,f
  2474  0619  0DB0               	rlf	___flmul@grs+2,f
  2475  061A  0DB1               	rlf	___flmul@grs+3,f
  2476  061B  0BA8               	decfsz	??___flmul,f
  2477  061C  2E16               	goto	u1355
  2478  061D  0820               	movf	___flmul@b,w
  2479  061E  00A8               	movwf	??___flmul
  2480  061F  0828               	movf	??___flmul,w
  2481  0620  00F0               	movwf	__Umul8_16@multiplicand
  2482  0621  0824               	movf	___flmul@a,w
  2483  0622  120A  118A  20AF  120A  118A  	fcall	__Umul8_16
  2484  0627  0871               	movf	?__Umul8_16+1,w
  2485  0628  1283               	bcf	3,5	;RP0=0, select bank0
  2486  0629  1303               	bcf	3,6	;RP1=0, select bank0
  2487  062A  00B9               	movwf	___flmul@temp+1
  2488  062B  0870               	movf	?__Umul8_16,w
  2489  062C  00B8               	movwf	___flmul@temp
  2490  062D                     l1461:
  2491  062D  0838               	movf	___flmul@temp,w
  2492  062E  00A8               	movwf	??___flmul
  2493  062F  0839               	movf	___flmul@temp+1,w
  2494  0630  00A9               	movwf	??___flmul+1
  2495  0631  01AA               	clrf	??___flmul+2
  2496  0632  01AB               	clrf	??___flmul+3
  2497  0633  0828               	movf	??___flmul,w
  2498  0634  07AE               	addwf	___flmul@grs,f
  2499  0635  0829               	movf	??___flmul+1,w
  2500  0636  1103               	clrz
  2501  0637  1803               	skipnc
  2502  0638  3E01               	addlw	1
  2503  0639  1903               	skipnz
  2504  063A  2E3C               	goto	u1361
  2505  063B  07AF               	addwf	___flmul@grs+1,f
  2506  063C                     u1361:
  2507  063C  082A               	movf	??___flmul+2,w
  2508  063D  1103               	clrz
  2509  063E  1803               	skipnc
  2510  063F  3E01               	addlw	1
  2511  0640  1903               	skipnz
  2512  0641  2E43               	goto	u1362
  2513  0642  07B0               	addwf	___flmul@grs+2,f
  2514  0643                     u1362:
  2515  0643  082B               	movf	??___flmul+3,w
  2516  0644  1103               	clrz
  2517  0645  1803               	skipnc
  2518  0646  3E01               	addlw	1
  2519  0647  1903               	skipnz
  2520  0648  2E4A               	goto	u1363
  2521  0649  07B1               	addwf	___flmul@grs+3,f
  2522  064A                     u1363:
  2523  064A                     l1463:
  2524  064A  0821               	movf	___flmul@b+1,w
  2525  064B  00A8               	movwf	??___flmul
  2526  064C  0828               	movf	??___flmul,w
  2527  064D  00F0               	movwf	__Umul8_16@multiplicand
  2528  064E  0826               	movf	___flmul@a+2,w
  2529  064F  120A  118A  20AF  120A  118A  	fcall	__Umul8_16
  2530  0654  0871               	movf	?__Umul8_16+1,w
  2531  0655  1283               	bcf	3,5	;RP0=0, select bank0
  2532  0656  1303               	bcf	3,6	;RP1=0, select bank0
  2533  0657  00B9               	movwf	___flmul@temp+1
  2534  0658  0870               	movf	?__Umul8_16,w
  2535  0659  00B8               	movwf	___flmul@temp
  2536  065A  0838               	movf	___flmul@temp,w
  2537  065B  00A8               	movwf	??___flmul
  2538  065C  0839               	movf	___flmul@temp+1,w
  2539  065D  00A9               	movwf	??___flmul+1
  2540  065E  01AA               	clrf	??___flmul+2
  2541  065F  01AB               	clrf	??___flmul+3
  2542  0660  0828               	movf	??___flmul,w
  2543  0661  07B4               	addwf	___flmul@prod,f
  2544  0662  0829               	movf	??___flmul+1,w
  2545  0663  1103               	clrz
  2546  0664  1803               	skipnc
  2547  0665  3E01               	addlw	1
  2548  0666  1903               	skipnz
  2549  0667  2E69               	goto	u1371
  2550  0668  07B5               	addwf	___flmul@prod+1,f
  2551  0669                     u1371:
  2552  0669  082A               	movf	??___flmul+2,w
  2553  066A  1103               	clrz
  2554  066B  1803               	skipnc
  2555  066C  3E01               	addlw	1
  2556  066D  1903               	skipnz
  2557  066E  2E70               	goto	u1372
  2558  066F  07B6               	addwf	___flmul@prod+2,f
  2559  0670                     u1372:
  2560  0670  082B               	movf	??___flmul+3,w
  2561  0671  1103               	clrz
  2562  0672  1803               	skipnc
  2563  0673  3E01               	addlw	1
  2564  0674  1903               	skipnz
  2565  0675  2E77               	goto	u1373
  2566  0676  07B7               	addwf	___flmul@prod+3,f
  2567  0677                     u1373:
  2568  0677                     l1465:
  2569  0677  0822               	movf	___flmul@b+2,w
  2570  0678  00A8               	movwf	??___flmul
  2571  0679  0828               	movf	??___flmul,w
  2572  067A  00F0               	movwf	__Umul8_16@multiplicand
  2573  067B  0825               	movf	___flmul@a+1,w
  2574  067C  120A  118A  20AF  120A  118A  	fcall	__Umul8_16
  2575  0681  0871               	movf	?__Umul8_16+1,w
  2576  0682  1283               	bcf	3,5	;RP0=0, select bank0
  2577  0683  1303               	bcf	3,6	;RP1=0, select bank0
  2578  0684  00B9               	movwf	___flmul@temp+1
  2579  0685  0870               	movf	?__Umul8_16,w
  2580  0686  00B8               	movwf	___flmul@temp
  2581  0687                     l1467:
  2582  0687  0838               	movf	___flmul@temp,w
  2583  0688  00A8               	movwf	??___flmul
  2584  0689  0839               	movf	___flmul@temp+1,w
  2585  068A  00A9               	movwf	??___flmul+1
  2586  068B  01AA               	clrf	??___flmul+2
  2587  068C  01AB               	clrf	??___flmul+3
  2588  068D  0828               	movf	??___flmul,w
  2589  068E  07B4               	addwf	___flmul@prod,f
  2590  068F  0829               	movf	??___flmul+1,w
  2591  0690  1103               	clrz
  2592  0691  1803               	skipnc
  2593  0692  3E01               	addlw	1
  2594  0693  1903               	skipnz
  2595  0694  2E96               	goto	u1381
  2596  0695  07B5               	addwf	___flmul@prod+1,f
  2597  0696                     u1381:
  2598  0696  082A               	movf	??___flmul+2,w
  2599  0697  1103               	clrz
  2600  0698  1803               	skipnc
  2601  0699  3E01               	addlw	1
  2602  069A  1903               	skipnz
  2603  069B  2E9D               	goto	u1382
  2604  069C  07B6               	addwf	___flmul@prod+2,f
  2605  069D                     u1382:
  2606  069D  082B               	movf	??___flmul+3,w
  2607  069E  1103               	clrz
  2608  069F  1803               	skipnc
  2609  06A0  3E01               	addlw	1
  2610  06A1  1903               	skipnz
  2611  06A2  2EA4               	goto	u1383
  2612  06A3  07B7               	addwf	___flmul@prod+3,f
  2613  06A4                     u1383:
  2614  06A4  0822               	movf	___flmul@b+2,w
  2615  06A5  00A8               	movwf	??___flmul
  2616  06A6  0828               	movf	??___flmul,w
  2617  06A7  00F0               	movwf	__Umul8_16@multiplicand
  2618  06A8  0826               	movf	___flmul@a+2,w
  2619  06A9  120A  118A  20AF  120A  118A  	fcall	__Umul8_16
  2620  06AE  0871               	movf	?__Umul8_16+1,w
  2621  06AF  1283               	bcf	3,5	;RP0=0, select bank0
  2622  06B0  1303               	bcf	3,6	;RP1=0, select bank0
  2623  06B1  00B9               	movwf	___flmul@temp+1
  2624  06B2  0870               	movf	?__Umul8_16,w
  2625  06B3  00B8               	movwf	___flmul@temp
  2626  06B4                     l1469:
  2627  06B4  0838               	movf	___flmul@temp,w
  2628  06B5  00A8               	movwf	??___flmul
  2629  06B6  0839               	movf	___flmul@temp+1,w
  2630  06B7  00A9               	movwf	??___flmul+1
  2631  06B8  01AA               	clrf	??___flmul+2
  2632  06B9  01AB               	clrf	??___flmul+3
  2633  06BA  3008               	movlw	8
  2634  06BB                     u1395:
  2635  06BB  1003               	clrc
  2636  06BC  0DA8               	rlf	??___flmul,f
  2637  06BD  0DA9               	rlf	??___flmul+1,f
  2638  06BE  0DAA               	rlf	??___flmul+2,f
  2639  06BF  0DAB               	rlf	??___flmul+3,f
  2640  06C0                     u1390:
  2641  06C0  3EFF               	addlw	-1
  2642  06C1  1D03               	skipz
  2643  06C2  2EBB               	goto	u1395
  2644  06C3  0828               	movf	??___flmul,w
  2645  06C4  07B4               	addwf	___flmul@prod,f
  2646  06C5  0829               	movf	??___flmul+1,w
  2647  06C6  1103               	clrz
  2648  06C7  1803               	skipnc
  2649  06C8  3E01               	addlw	1
  2650  06C9  1903               	skipnz
  2651  06CA  2ECC               	goto	u1401
  2652  06CB  07B5               	addwf	___flmul@prod+1,f
  2653  06CC                     u1401:
  2654  06CC  082A               	movf	??___flmul+2,w
  2655  06CD  1103               	clrz
  2656  06CE  1803               	skipnc
  2657  06CF  3E01               	addlw	1
  2658  06D0  1903               	skipnz
  2659  06D1  2ED3               	goto	u1402
  2660  06D2  07B6               	addwf	___flmul@prod+2,f
  2661  06D3                     u1402:
  2662  06D3  082B               	movf	??___flmul+3,w
  2663  06D4  1103               	clrz
  2664  06D5  1803               	skipnc
  2665  06D6  3E01               	addlw	1
  2666  06D7  1903               	skipnz
  2667  06D8  2EDA               	goto	u1403
  2668  06D9  07B7               	addwf	___flmul@prod+3,f
  2669  06DA                     u1403:
  2670  06DA                     l1471:
  2671  06DA  082E               	movf	___flmul@grs,w
  2672  06DB  00A8               	movwf	??___flmul
  2673  06DC  082F               	movf	___flmul@grs+1,w
  2674  06DD  00A9               	movwf	??___flmul+1
  2675  06DE  0830               	movf	___flmul@grs+2,w
  2676  06DF  00AA               	movwf	??___flmul+2
  2677  06E0  0831               	movf	___flmul@grs+3,w
  2678  06E1  00AB               	movwf	??___flmul+3
  2679  06E2  3018               	movlw	24
  2680  06E3                     u1415:
  2681  06E3  1003               	clrc
  2682  06E4  0CAB               	rrf	??___flmul+3,f
  2683  06E5  0CAA               	rrf	??___flmul+2,f
  2684  06E6  0CA9               	rrf	??___flmul+1,f
  2685  06E7  0CA8               	rrf	??___flmul,f
  2686  06E8                     u1410:
  2687  06E8  3EFF               	addlw	-1
  2688  06E9  1D03               	skipz
  2689  06EA  2EE3               	goto	u1415
  2690  06EB  0828               	movf	??___flmul,w
  2691  06EC  07B4               	addwf	___flmul@prod,f
  2692  06ED  0829               	movf	??___flmul+1,w
  2693  06EE  1103               	clrz
  2694  06EF  1803               	skipnc
  2695  06F0  3E01               	addlw	1
  2696  06F1  1903               	skipnz
  2697  06F2  2EF4               	goto	u1421
  2698  06F3  07B5               	addwf	___flmul@prod+1,f
  2699  06F4                     u1421:
  2700  06F4  082A               	movf	??___flmul+2,w
  2701  06F5  1103               	clrz
  2702  06F6  1803               	skipnc
  2703  06F7  3E01               	addlw	1
  2704  06F8  1903               	skipnz
  2705  06F9  2EFB               	goto	u1422
  2706  06FA  07B6               	addwf	___flmul@prod+2,f
  2707  06FB                     u1422:
  2708  06FB  082B               	movf	??___flmul+3,w
  2709  06FC  1103               	clrz
  2710  06FD  1803               	skipnc
  2711  06FE  3E01               	addlw	1
  2712  06FF  1903               	skipnz
  2713  0700  2F02               	goto	u1423
  2714  0701  07B7               	addwf	___flmul@prod+3,f
  2715  0702                     u1423:
  2716  0702                     l1473:
  2717  0702  3008               	movlw	8
  2718  0703  00A8               	movwf	??___flmul
  2719  0704                     u1435:
  2720  0704  1003               	clrc
  2721  0705  0DAE               	rlf	___flmul@grs,f
  2722  0706  0DAF               	rlf	___flmul@grs+1,f
  2723  0707  0DB0               	rlf	___flmul@grs+2,f
  2724  0708  0DB1               	rlf	___flmul@grs+3,f
  2725  0709  0BA8               	decfsz	??___flmul,f
  2726  070A  2F04               	goto	u1435
  2727  070B                     l1475:
  2728  070B  0833               	movf	___flmul@bexp,w
  2729  070C  0732               	addwf	___flmul@aexp,w
  2730  070D  00A8               	movwf	??___flmul
  2731  070E  01A9               	clrf	??___flmul+1
  2732  070F  0DA9               	rlf	??___flmul+1,f
  2733  0710  0828               	movf	??___flmul,w
  2734  0711  3E82               	addlw	130
  2735  0712  00B8               	movwf	___flmul@temp
  2736  0713  0829               	movf	??___flmul+1,w
  2737  0714  1803               	skipnc
  2738  0715  3E01               	addlw	1
  2739  0716  3EFF               	addlw	255
  2740  0717  00B9               	movwf	___flmul@temp+1
  2741  0718  2F36               	goto	l1487
  2742  0719                     l1477:
  2743  0719  3001               	movlw	1
  2744  071A  00A8               	movwf	??___flmul
  2745  071B                     u1445:
  2746  071B  1003               	clrc
  2747  071C  0DB4               	rlf	___flmul@prod,f
  2748  071D  0DB5               	rlf	___flmul@prod+1,f
  2749  071E  0DB6               	rlf	___flmul@prod+2,f
  2750  071F  0DB7               	rlf	___flmul@prod+3,f
  2751  0720  0BA8               	decfsz	??___flmul,f
  2752  0721  2F1B               	goto	u1445
  2753  0722                     l1479:
  2754  0722  1FB1               	btfss	___flmul@grs+3,7
  2755  0723  2F25               	goto	u1451
  2756  0724  2F26               	goto	u1450
  2757  0725                     u1451:
  2758  0725  2F27               	goto	l1483
  2759  0726                     u1450:
  2760  0726                     l1481:
  2761  0726  1434               	bsf	___flmul@prod,0
  2762  0727                     l1483:
  2763  0727  3001               	movlw	1
  2764  0728  00A8               	movwf	??___flmul
  2765  0729                     u1465:
  2766  0729  1003               	clrc
  2767  072A  0DAE               	rlf	___flmul@grs,f
  2768  072B  0DAF               	rlf	___flmul@grs+1,f
  2769  072C  0DB0               	rlf	___flmul@grs+2,f
  2770  072D  0DB1               	rlf	___flmul@grs+3,f
  2771  072E  0BA8               	decfsz	??___flmul,f
  2772  072F  2F29               	goto	u1465
  2773  0730                     l1485:
  2774  0730  30FF               	movlw	255
  2775  0731  07B8               	addwf	___flmul@temp,f
  2776  0732  1803               	skipnc
  2777  0733  0AB9               	incf	___flmul@temp+1,f
  2778  0734  30FF               	movlw	255
  2779  0735  07B9               	addwf	___flmul@temp+1,f
  2780  0736                     l1487:
  2781  0736  1FB6               	btfss	___flmul@prod+2,7
  2782  0737  2F39               	goto	u1471
  2783  0738  2F3A               	goto	u1470
  2784  0739                     u1471:
  2785  0739  2F19               	goto	l1477
  2786  073A                     u1470:
  2787  073A                     l1489:
  2788  073A  01B2               	clrf	___flmul@aexp
  2789  073B                     l1491:
  2790  073B  1FB1               	btfss	___flmul@grs+3,7
  2791  073C  2F3E               	goto	u1481
  2792  073D  2F3F               	goto	u1480
  2793  073E                     u1481:
  2794  073E  2F5B               	goto	l1499
  2795  073F                     u1480:
  2796  073F                     l1493:
  2797  073F  30FF               	movlw	255
  2798  0740  052E               	andwf	___flmul@grs,w
  2799  0741  00A8               	movwf	??___flmul
  2800  0742  30FF               	movlw	255
  2801  0743  052F               	andwf	___flmul@grs+1,w
  2802  0744  00A9               	movwf	??___flmul+1
  2803  0745  30FF               	movlw	255
  2804  0746  0530               	andwf	___flmul@grs+2,w
  2805  0747  00AA               	movwf	??___flmul+2
  2806  0748  307F               	movlw	127
  2807  0749  0531               	andwf	___flmul@grs+3,w
  2808  074A  00AB               	movwf	??___flmul+3
  2809  074B  082B               	movf	??___flmul+3,w
  2810  074C  042A               	iorwf	??___flmul+2,w
  2811  074D  0429               	iorwf	??___flmul+1,w
  2812  074E  0428               	iorwf	??___flmul,w
  2813  074F  1903               	skipnz
  2814  0750  2F52               	goto	u1491
  2815  0751  2F53               	goto	u1490
  2816  0752                     u1491:
  2817  0752  2F56               	goto	l626
  2818  0753                     u1490:
  2819  0753                     l1495:
  2820  0753  01B2               	clrf	___flmul@aexp
  2821  0754  0AB2               	incf	___flmul@aexp,f
  2822  0755  2F5B               	goto	l1499
  2823  0756                     l626:
  2824  0756  1C34               	btfss	___flmul@prod,0
  2825  0757  2F59               	goto	u1501
  2826  0758  2F5A               	goto	u1500
  2827  0759                     u1501:
  2828  0759  2F5B               	goto	l1499
  2829  075A                     u1500:
  2830  075A  2F53               	goto	l1495
  2831  075B                     l1499:
  2832  075B  0832               	movf	___flmul@aexp,w
  2833  075C  1903               	btfsc	3,2
  2834  075D  2F5F               	goto	u1511
  2835  075E  2F60               	goto	u1510
  2836  075F                     u1511:
  2837  075F  2F91               	goto	l1509
  2838  0760                     u1510:
  2839  0760                     l1501:
  2840  0760  3001               	movlw	1
  2841  0761  07B4               	addwf	___flmul@prod,f
  2842  0762  3000               	movlw	0
  2843  0763  1803               	skipnc
  2844  0764  3001               	movlw	1
  2845  0765  07B5               	addwf	___flmul@prod+1,f
  2846  0766  3000               	movlw	0
  2847  0767  1803               	skipnc
  2848  0768  3001               	movlw	1
  2849  0769  07B6               	addwf	___flmul@prod+2,f
  2850  076A  3000               	movlw	0
  2851  076B  1803               	skipnc
  2852  076C  3001               	movlw	1
  2853  076D  07B7               	addwf	___flmul@prod+3,f
  2854  076E                     l1503:
  2855  076E  1C37               	btfss	___flmul@prod+3,0
  2856  076F  2F71               	goto	u1521
  2857  0770  2F72               	goto	u1520
  2858  0771                     u1521:
  2859  0771  2F91               	goto	l1509
  2860  0772                     u1520:
  2861  0772                     l1505:
  2862  0772  0834               	movf	___flmul@prod,w
  2863  0773  00A8               	movwf	??___flmul
  2864  0774  0835               	movf	___flmul@prod+1,w
  2865  0775  00A9               	movwf	??___flmul+1
  2866  0776  0836               	movf	___flmul@prod+2,w
  2867  0777  00AA               	movwf	??___flmul+2
  2868  0778  0837               	movf	___flmul@prod+3,w
  2869  0779  00AB               	movwf	??___flmul+3
  2870  077A  3001               	movlw	1
  2871  077B  00AC               	movwf	??___flmul+4
  2872  077C                     u1535:
  2873  077C  0D2B               	rlf	??___flmul+3,w
  2874  077D  0CAB               	rrf	??___flmul+3,f
  2875  077E  0CAA               	rrf	??___flmul+2,f
  2876  077F  0CA9               	rrf	??___flmul+1,f
  2877  0780  0CA8               	rrf	??___flmul,f
  2878  0781                     u1530:
  2879  0781  0BAC               	decfsz	??___flmul+4,f
  2880  0782  2F7C               	goto	u1535
  2881  0783  082B               	movf	??___flmul+3,w
  2882  0784  00B7               	movwf	___flmul@prod+3
  2883  0785  082A               	movf	??___flmul+2,w
  2884  0786  00B6               	movwf	___flmul@prod+2
  2885  0787  0829               	movf	??___flmul+1,w
  2886  0788  00B5               	movwf	___flmul@prod+1
  2887  0789  0828               	movf	??___flmul,w
  2888  078A  00B4               	movwf	___flmul@prod
  2889  078B                     l1507:
  2890  078B  3001               	movlw	1
  2891  078C  07B8               	addwf	___flmul@temp,f
  2892  078D  1803               	skipnc
  2893  078E  0AB9               	incf	___flmul@temp+1,f
  2894  078F  3000               	movlw	0
  2895  0790  07B9               	addwf	___flmul@temp+1,f
  2896  0791                     l1509:
  2897  0791  0839               	movf	___flmul@temp+1,w
  2898  0792  3A80               	xorlw	128
  2899  0793  00FF               	movwf	btemp+1
  2900  0794  3080               	movlw	128
  2901  0795  027F               	subwf	btemp+1,w
  2902  0796  1D03               	skipz
  2903  0797  2F9A               	goto	u1545
  2904  0798  30FF               	movlw	255
  2905  0799  0238               	subwf	___flmul@temp,w
  2906  079A                     u1545:
  2907  079A  1C03               	skipc
  2908  079B  2F9D               	goto	u1541
  2909  079C  2F9E               	goto	u1540
  2910  079D                     u1541:
  2911  079D  2FA9               	goto	l1513
  2912  079E                     u1540:
  2913  079E                     l1511:
  2914  079E  307F               	movlw	127
  2915  079F  1283               	bcf	3,5	;RP0=0, select bank0
  2916  07A0  1303               	bcf	3,6	;RP1=0, select bank0
  2917  07A1  00B7               	movwf	___flmul@prod+3
  2918  07A2  3080               	movlw	128
  2919  07A3  00B6               	movwf	___flmul@prod+2
  2920  07A4  3000               	movlw	0
  2921  07A5  00B5               	movwf	___flmul@prod+1
  2922  07A6  3000               	movlw	0
  2923  07A7  00B4               	movwf	___flmul@prod
  2924  07A8  2FDE               	goto	l632
  2925  07A9                     l1513:
  2926  07A9  1283               	bcf	3,5	;RP0=0, select bank0
  2927  07AA  1303               	bcf	3,6	;RP1=0, select bank0
  2928  07AB  0839               	movf	___flmul@temp+1,w
  2929  07AC  3A80               	xorlw	128
  2930  07AD  00FF               	movwf	btemp+1
  2931  07AE  3080               	movlw	128
  2932  07AF  027F               	subwf	btemp+1,w
  2933  07B0  1D03               	skipz
  2934  07B1  2FB4               	goto	u1555
  2935  07B2  3001               	movlw	1
  2936  07B3  0238               	subwf	___flmul@temp,w
  2937  07B4                     u1555:
  2938  07B4  1803               	skipnc
  2939  07B5  2FB7               	goto	u1551
  2940  07B6  2FB8               	goto	u1550
  2941  07B7                     u1551:
  2942  07B7  2FC4               	goto	l1519
  2943  07B8                     u1550:
  2944  07B8                     l1515:
  2945  07B8  3000               	movlw	0
  2946  07B9  1283               	bcf	3,5	;RP0=0, select bank0
  2947  07BA  1303               	bcf	3,6	;RP1=0, select bank0
  2948  07BB  00B7               	movwf	___flmul@prod+3
  2949  07BC  3000               	movlw	0
  2950  07BD  00B6               	movwf	___flmul@prod+2
  2951  07BE  3000               	movlw	0
  2952  07BF  00B5               	movwf	___flmul@prod+1
  2953  07C0  3000               	movlw	0
  2954  07C1  00B4               	movwf	___flmul@prod
  2955  07C2                     l1517:
  2956  07C2  01AD               	clrf	___flmul@sign
  2957  07C3  2FDE               	goto	l632
  2958  07C4                     l1519:
  2959  07C4  1283               	bcf	3,5	;RP0=0, select bank0
  2960  07C5  1303               	bcf	3,6	;RP1=0, select bank0
  2961  07C6  0838               	movf	___flmul@temp,w
  2962  07C7  00A8               	movwf	??___flmul
  2963  07C8  0828               	movf	??___flmul,w
  2964  07C9  00B3               	movwf	___flmul@bexp
  2965  07CA  30FF               	movlw	255
  2966  07CB  05B4               	andwf	___flmul@prod,f
  2967  07CC  30FF               	movlw	255
  2968  07CD  05B5               	andwf	___flmul@prod+1,f
  2969  07CE  307F               	movlw	127
  2970  07CF  05B6               	andwf	___flmul@prod+2,f
  2971  07D0  3000               	movlw	0
  2972  07D1  05B7               	andwf	___flmul@prod+3,f
  2973  07D2                     l1521:
  2974  07D2  1C33               	btfss	___flmul@bexp,0
  2975  07D3  2FD5               	goto	u1561
  2976  07D4  2FD6               	goto	u1560
  2977  07D5                     u1561:
  2978  07D5  2FD7               	goto	l1525
  2979  07D6                     u1560:
  2980  07D6                     l1523:
  2981  07D6  17B6               	bsf	___flmul@prod+2,7
  2982  07D7                     l1525:
  2983  07D7  0833               	movf	___flmul@bexp,w
  2984  07D8  00A8               	movwf	??___flmul
  2985  07D9  1003               	clrc
  2986  07DA  0C28               	rrf	??___flmul,w
  2987  07DB  00A9               	movwf	??___flmul+1
  2988  07DC  0829               	movf	??___flmul+1,w
  2989  07DD  00B7               	movwf	___flmul@prod+3
  2990  07DE                     l632:
  2991  07DE  082D               	movf	___flmul@sign,w
  2992  07DF  00A8               	movwf	??___flmul
  2993  07E0  0828               	movf	??___flmul,w
  2994  07E1  04B7               	iorwf	___flmul@prod+3,f
  2995  07E2                     l1527:
  2996  07E2  0837               	movf	___flmul@prod+3,w
  2997  07E3  00A3               	movwf	?___flmul+3
  2998  07E4  0836               	movf	___flmul@prod+2,w
  2999  07E5  00A2               	movwf	?___flmul+2
  3000  07E6  0835               	movf	___flmul@prod+1,w
  3001  07E7  00A1               	movwf	?___flmul+1
  3002  07E8  0834               	movf	___flmul@prod,w
  3003  07E9  00A0               	movwf	?___flmul
  3004  07EA                     l620:
  3005  07EA  0008               	return
  3006  07EB                     __end_of___flmul:
  3007                           
  3008                           	psect	text12
  3009  00AF                     __ptext12:	
  3010 ;; *************** function __Umul8_16 *****************
  3011 ;; Defined at:
  3012 ;;		line 4 in file "C:\Program Files\Microchip\xc8\v2.31\pic\sources\c90\common\Umul8_16.c"
  3013 ;; Parameters:    Size  Location     Type
  3014 ;;  multiplier      1    wreg     unsigned char 
  3015 ;;  multiplicand    1    0[COMMON] unsigned char 
  3016 ;; Auto vars:     Size  Location     Type
  3017 ;;  multiplier      1    8[COMMON] unsigned char 
  3018 ;;  word_mpld       2    6[COMMON] unsigned int 
  3019 ;;  product         2    4[COMMON] unsigned int 
  3020 ;; Return value:  Size  Location     Type
  3021 ;;                  2    0[COMMON] unsigned int 
  3022 ;; Registers used:
  3023 ;;		wreg, status,2, status,0
  3024 ;; Tracked objects:
  3025 ;;		On entry : 0/0
  3026 ;;		On exit  : 0/0
  3027 ;;		Unchanged: 0/0
  3028 ;; Data sizes:     COMMON   BANK0   BANK1   BANK3   BANK2
  3029 ;;      Params:         2       0       0       0       0
  3030 ;;      Locals:         5       0       0       0       0
  3031 ;;      Temps:          2       0       0       0       0
  3032 ;;      Totals:         9       0       0       0       0
  3033 ;;Total ram usage:        9 bytes
  3034 ;; Hardware stack levels used:    1
  3035 ;; This function calls:
  3036 ;;		Nothing
  3037 ;; This function is called by:
  3038 ;;		___flmul
  3039 ;; This function uses a non-reentrant model
  3040 ;;
  3041                           
  3042                           
  3043                           ;psect for function __Umul8_16
  3044  00AF                     __Umul8_16:
  3045                           
  3046                           ;incstack = 0
  3047                           ; Regs used in __Umul8_16: [wreg+status,2+status,0]
  3048                           ;__Umul8_16@multiplier stored from wreg
  3049  00AF  00F8               	movwf	__Umul8_16@multiplier
  3050  00B0                     l1221:
  3051  00B0  01F4               	clrf	__Umul8_16@product
  3052  00B1  01F5               	clrf	__Umul8_16@product+1
  3053  00B2                     l1223:
  3054  00B2  0870               	movf	__Umul8_16@multiplicand,w
  3055  00B3  00F2               	movwf	??__Umul8_16
  3056  00B4  01F3               	clrf	??__Umul8_16+1
  3057  00B5  0872               	movf	??__Umul8_16,w
  3058  00B6  00F6               	movwf	__Umul8_16@word_mpld
  3059  00B7  0873               	movf	??__Umul8_16+1,w
  3060  00B8  00F7               	movwf	__Umul8_16@word_mpld+1
  3061  00B9                     l1225:
  3062  00B9  1C78               	btfss	__Umul8_16@multiplier,0
  3063  00BA  28BC               	goto	u881
  3064  00BB  28BD               	goto	u880
  3065  00BC                     u881:
  3066  00BC  28C3               	goto	l639
  3067  00BD                     u880:
  3068  00BD                     l1227:
  3069  00BD  0876               	movf	__Umul8_16@word_mpld,w
  3070  00BE  07F4               	addwf	__Umul8_16@product,f
  3071  00BF  1803               	skipnc
  3072  00C0  0AF5               	incf	__Umul8_16@product+1,f
  3073  00C1  0877               	movf	__Umul8_16@word_mpld+1,w
  3074  00C2  07F5               	addwf	__Umul8_16@product+1,f
  3075  00C3                     l639:
  3076  00C3  3001               	movlw	1
  3077  00C4                     u895:
  3078  00C4  1003               	clrc
  3079  00C5  0DF6               	rlf	__Umul8_16@word_mpld,f
  3080  00C6  0DF7               	rlf	__Umul8_16@word_mpld+1,f
  3081  00C7  3EFF               	addlw	-1
  3082  00C8  1D03               	skipz
  3083  00C9  28C4               	goto	u895
  3084  00CA  1003               	clrc
  3085  00CB  0CF8               	rrf	__Umul8_16@multiplier,f
  3086  00CC                     l1229:
  3087  00CC  0878               	movf	__Umul8_16@multiplier,w
  3088  00CD  1D03               	btfss	3,2
  3089  00CE  28D0               	goto	u901
  3090  00CF  28D1               	goto	u900
  3091  00D0                     u901:
  3092  00D0  28B9               	goto	l1225
  3093  00D1                     u900:
  3094  00D1                     l1231:
  3095  00D1  0875               	movf	__Umul8_16@product+1,w
  3096  00D2  00F1               	movwf	?__Umul8_16+1
  3097  00D3  0874               	movf	__Umul8_16@product,w
  3098  00D4  00F0               	movwf	?__Umul8_16
  3099  00D5                     l641:
  3100  00D5  0008               	return
  3101  00D6                     __end_of__Umul8_16:
  3102                           
  3103                           	psect	text13
  3104  02AD                     __ptext13:	
  3105 ;; *************** function ___fldiv *****************
  3106 ;; Defined at:
  3107 ;;		line 8 in file "C:\Program Files\Microchip\xc8\v2.31\pic\sources\c90\common\sprcdiv.c"
  3108 ;; Parameters:    Size  Location     Type
  3109 ;;  a               4   26[BANK0 ] unsigned int 
  3110 ;;  b               4   30[BANK0 ] unsigned int 
  3111 ;; Auto vars:     Size  Location     Type
  3112 ;;  grs             4   46[BANK0 ] unsigned long 
  3113 ;;  rem             4   39[BANK0 ] unsigned long 
  3114 ;;  new_exp         2   44[BANK0 ] int 
  3115 ;;  aexp            1   51[BANK0 ] unsigned char 
  3116 ;;  bexp            1   50[BANK0 ] unsigned char 
  3117 ;;  sign            1   43[BANK0 ] unsigned char 
  3118 ;; Return value:  Size  Location     Type
  3119 ;;                  4   26[BANK0 ] unsigned char 
  3120 ;; Registers used:
  3121 ;;		wreg, status,2, status,0, btemp+1
  3122 ;; Tracked objects:
  3123 ;;		On entry : 0/0
  3124 ;;		On exit  : 0/0
  3125 ;;		Unchanged: 0/0
  3126 ;; Data sizes:     COMMON   BANK0   BANK1   BANK3   BANK2
  3127 ;;      Params:         0       8       0       0       0
  3128 ;;      Locals:         0      13       0       0       0
  3129 ;;      Temps:          0       5       0       0       0
  3130 ;;      Totals:         0      26       0       0       0
  3131 ;;Total ram usage:       26 bytes
  3132 ;; Hardware stack levels used:    1
  3133 ;; This function calls:
  3134 ;;		Nothing
  3135 ;; This function is called by:
  3136 ;;		_ADC_CH0
  3137 ;; This function uses a non-reentrant model
  3138 ;;
  3139                           
  3140                           
  3141                           ;psect for function ___fldiv
  3142  02AD                     ___fldiv:
  3143  02AD                     l1249:	
  3144                           ;incstack = 0
  3145                           ; Regs used in ___fldiv: [wreg+status,2+status,0+btemp+1]
  3146                           
  3147  02AD  1283               	bcf	3,5	;RP0=0, select bank0
  3148  02AE  1303               	bcf	3,6	;RP1=0, select bank0
  3149  02AF  0841               	movf	___fldiv@b+3,w
  3150  02B0  3980               	andlw	128
  3151  02B1  00C2               	movwf	??___fldiv
  3152  02B2  0842               	movf	??___fldiv,w
  3153  02B3  00CB               	movwf	___fldiv@sign
  3154  02B4                     l1251:
  3155  02B4  0841               	movf	___fldiv@b+3,w
  3156  02B5  00C2               	movwf	??___fldiv
  3157  02B6  0742               	addwf	??___fldiv,w
  3158  02B7  00C3               	movwf	??___fldiv+1
  3159  02B8  0843               	movf	??___fldiv+1,w
  3160  02B9  00D2               	movwf	___fldiv@bexp
  3161  02BA                     l1253:
  3162  02BA  1FC0               	btfss	___fldiv@b+2,7
  3163  02BB  2ABD               	goto	u911
  3164  02BC  2ABE               	goto	u910
  3165  02BD                     u911:
  3166  02BD  2ABF               	goto	l1257
  3167  02BE                     u910:
  3168  02BE                     l1255:
  3169  02BE  1452               	bsf	___fldiv@bexp,0
  3170  02BF                     l1257:
  3171  02BF  0852               	movf	___fldiv@bexp,w
  3172  02C0  1903               	btfsc	3,2
  3173  02C1  2AC3               	goto	u921
  3174  02C2  2AC4               	goto	u920
  3175  02C3                     u921:
  3176  02C3  2AD4               	goto	l1267
  3177  02C4                     u920:
  3178  02C4                     l1259:
  3179  02C4  0A52               	incf	___fldiv@bexp,w
  3180  02C5  1D03               	btfss	3,2
  3181  02C6  2AC8               	goto	u931
  3182  02C7  2AC9               	goto	u930
  3183  02C8                     u931:
  3184  02C8  2AD1               	goto	l1263
  3185  02C9                     u930:
  3186  02C9                     l1261:
  3187  02C9  3000               	movlw	0
  3188  02CA  00C1               	movwf	___fldiv@b+3
  3189  02CB  3000               	movlw	0
  3190  02CC  00C0               	movwf	___fldiv@b+2
  3191  02CD  3000               	movlw	0
  3192  02CE  00BF               	movwf	___fldiv@b+1
  3193  02CF  3000               	movlw	0
  3194  02D0  00BE               	movwf	___fldiv@b
  3195  02D1                     l1263:
  3196  02D1  17C0               	bsf	___fldiv@b+2,7
  3197  02D2                     l1265:
  3198  02D2  01C1               	clrf	___fldiv@b+3
  3199  02D3  2ADC               	goto	l1269
  3200  02D4                     l1267:
  3201  02D4  3000               	movlw	0
  3202  02D5  00C1               	movwf	___fldiv@b+3
  3203  02D6  3000               	movlw	0
  3204  02D7  00C0               	movwf	___fldiv@b+2
  3205  02D8  3000               	movlw	0
  3206  02D9  00BF               	movwf	___fldiv@b+1
  3207  02DA  3000               	movlw	0
  3208  02DB  00BE               	movwf	___fldiv@b
  3209  02DC                     l1269:
  3210  02DC  083D               	movf	___fldiv@a+3,w
  3211  02DD  3980               	andlw	128
  3212  02DE  00C2               	movwf	??___fldiv
  3213  02DF  0842               	movf	??___fldiv,w
  3214  02E0  06CB               	xorwf	___fldiv@sign,f
  3215  02E1                     l1271:
  3216  02E1  083D               	movf	___fldiv@a+3,w
  3217  02E2  00C2               	movwf	??___fldiv
  3218  02E3  0742               	addwf	??___fldiv,w
  3219  02E4  00C3               	movwf	??___fldiv+1
  3220  02E5  0843               	movf	??___fldiv+1,w
  3221  02E6  00D3               	movwf	___fldiv@aexp
  3222  02E7                     l1273:
  3223  02E7  1FBC               	btfss	___fldiv@a+2,7
  3224  02E8  2AEA               	goto	u941
  3225  02E9  2AEB               	goto	u940
  3226  02EA                     u941:
  3227  02EA  2AEC               	goto	l1277
  3228  02EB                     u940:
  3229  02EB                     l1275:
  3230  02EB  1453               	bsf	___fldiv@aexp,0
  3231  02EC                     l1277:
  3232  02EC  0853               	movf	___fldiv@aexp,w
  3233  02ED  1903               	btfsc	3,2
  3234  02EE  2AF0               	goto	u951
  3235  02EF  2AF1               	goto	u950
  3236  02F0                     u951:
  3237  02F0  2B01               	goto	l1287
  3238  02F1                     u950:
  3239  02F1                     l1279:
  3240  02F1  0A53               	incf	___fldiv@aexp,w
  3241  02F2  1D03               	btfss	3,2
  3242  02F3  2AF5               	goto	u961
  3243  02F4  2AF6               	goto	u960
  3244  02F5                     u961:
  3245  02F5  2AFE               	goto	l1283
  3246  02F6                     u960:
  3247  02F6                     l1281:
  3248  02F6  3000               	movlw	0
  3249  02F7  00BD               	movwf	___fldiv@a+3
  3250  02F8  3000               	movlw	0
  3251  02F9  00BC               	movwf	___fldiv@a+2
  3252  02FA  3000               	movlw	0
  3253  02FB  00BB               	movwf	___fldiv@a+1
  3254  02FC  3000               	movlw	0
  3255  02FD  00BA               	movwf	___fldiv@a
  3256  02FE                     l1283:
  3257  02FE  17BC               	bsf	___fldiv@a+2,7
  3258  02FF                     l1285:
  3259  02FF  01BD               	clrf	___fldiv@a+3
  3260  0300  2B09               	goto	l580
  3261  0301                     l1287:
  3262  0301  3000               	movlw	0
  3263  0302  00BD               	movwf	___fldiv@a+3
  3264  0303  3000               	movlw	0
  3265  0304  00BC               	movwf	___fldiv@a+2
  3266  0305  3000               	movlw	0
  3267  0306  00BB               	movwf	___fldiv@a+1
  3268  0307  3000               	movlw	0
  3269  0308  00BA               	movwf	___fldiv@a
  3270  0309                     l580:
  3271  0309  083D               	movf	___fldiv@a+3,w
  3272  030A  043C               	iorwf	___fldiv@a+2,w
  3273  030B  043B               	iorwf	___fldiv@a+1,w
  3274  030C  043A               	iorwf	___fldiv@a,w
  3275  030D  1D03               	skipz
  3276  030E  2B10               	goto	u971
  3277  030F  2B11               	goto	u970
  3278  0310                     u971:
  3279  0310  2B2A               	goto	l1297
  3280  0311                     u970:
  3281  0311                     l1289:
  3282  0311  3000               	movlw	0
  3283  0312  00C1               	movwf	___fldiv@b+3
  3284  0313  3000               	movlw	0
  3285  0314  00C0               	movwf	___fldiv@b+2
  3286  0315  3000               	movlw	0
  3287  0316  00BF               	movwf	___fldiv@b+1
  3288  0317  3000               	movlw	0
  3289  0318  00BE               	movwf	___fldiv@b
  3290  0319  3080               	movlw	128
  3291  031A  04C0               	iorwf	___fldiv@b+2,f
  3292  031B  307F               	movlw	127
  3293  031C  04C1               	iorwf	___fldiv@b+3,f
  3294  031D                     l1291:
  3295  031D  084B               	movf	___fldiv@sign,w
  3296  031E  00C2               	movwf	??___fldiv
  3297  031F  0842               	movf	??___fldiv,w
  3298  0320  04C1               	iorwf	___fldiv@b+3,f
  3299  0321                     l1293:
  3300  0321  0841               	movf	___fldiv@b+3,w
  3301  0322  00BD               	movwf	?___fldiv+3
  3302  0323  0840               	movf	___fldiv@b+2,w
  3303  0324  00BC               	movwf	?___fldiv+2
  3304  0325  083F               	movf	___fldiv@b+1,w
  3305  0326  00BB               	movwf	?___fldiv+1
  3306  0327  083E               	movf	___fldiv@b,w
  3307  0328  00BA               	movwf	?___fldiv
  3308  0329  2C89               	goto	l582
  3309  032A                     l1297:
  3310  032A  0852               	movf	___fldiv@bexp,w
  3311  032B  1D03               	btfss	3,2
  3312  032C  2B2E               	goto	u981
  3313  032D  2B2F               	goto	u980
  3314  032E                     u981:
  3315  032E  2B38               	goto	l1303
  3316  032F                     u980:
  3317  032F                     l1299:
  3318  032F  3000               	movlw	0
  3319  0330  00BD               	movwf	?___fldiv+3
  3320  0331  3000               	movlw	0
  3321  0332  00BC               	movwf	?___fldiv+2
  3322  0333  3000               	movlw	0
  3323  0334  00BB               	movwf	?___fldiv+1
  3324  0335  3000               	movlw	0
  3325  0336  00BA               	movwf	?___fldiv
  3326  0337  2C89               	goto	l582
  3327  0338                     l1303:
  3328  0338  0852               	movf	___fldiv@bexp,w
  3329  0339  00C2               	movwf	??___fldiv
  3330  033A  01C3               	clrf	??___fldiv+1
  3331  033B  0843               	movf	??___fldiv+1,w
  3332  033C  00C5               	movwf	??___fldiv+3
  3333  033D  0853               	movf	___fldiv@aexp,w
  3334  033E  0242               	subwf	??___fldiv,w
  3335  033F  00C4               	movwf	??___fldiv+2
  3336  0340  1C03               	skipc
  3337  0341  03C5               	decf	??___fldiv+3,f
  3338  0342  0844               	movf	??___fldiv+2,w
  3339  0343  3E7F               	addlw	127
  3340  0344  00CC               	movwf	___fldiv@new_exp
  3341  0345  0845               	movf	??___fldiv+3,w
  3342  0346  1803               	skipnc
  3343  0347  3E01               	addlw	1
  3344  0348  3E00               	addlw	0
  3345  0349  00CD               	movwf	___fldiv@new_exp+1
  3346  034A                     l1305:
  3347  034A  0841               	movf	___fldiv@b+3,w
  3348  034B  00CA               	movwf	___fldiv@rem+3
  3349  034C  0840               	movf	___fldiv@b+2,w
  3350  034D  00C9               	movwf	___fldiv@rem+2
  3351  034E  083F               	movf	___fldiv@b+1,w
  3352  034F  00C8               	movwf	___fldiv@rem+1
  3353  0350  083E               	movf	___fldiv@b,w
  3354  0351  00C7               	movwf	___fldiv@rem
  3355  0352                     l1307:
  3356  0352  3000               	movlw	0
  3357  0353  00C1               	movwf	___fldiv@b+3
  3358  0354  3000               	movlw	0
  3359  0355  00C0               	movwf	___fldiv@b+2
  3360  0356  3000               	movlw	0
  3361  0357  00BF               	movwf	___fldiv@b+1
  3362  0358  3000               	movlw	0
  3363  0359  00BE               	movwf	___fldiv@b
  3364  035A                     l1309:
  3365  035A  3000               	movlw	0
  3366  035B  00D1               	movwf	___fldiv@grs+3
  3367  035C  3000               	movlw	0
  3368  035D  00D0               	movwf	___fldiv@grs+2
  3369  035E  3000               	movlw	0
  3370  035F  00CF               	movwf	___fldiv@grs+1
  3371  0360  3000               	movlw	0
  3372  0361  00CE               	movwf	___fldiv@grs
  3373  0362                     l1311:
  3374  0362  01D3               	clrf	___fldiv@aexp
  3375  0363  2BAE               	goto	l1331
  3376  0364                     l1313:
  3377  0364  0853               	movf	___fldiv@aexp,w
  3378  0365  1903               	btfsc	3,2
  3379  0366  2B68               	goto	u991
  3380  0367  2B69               	goto	u990
  3381  0368                     u991:
  3382  0368  2B89               	goto	l1323
  3383  0369                     u990:
  3384  0369                     l1315:
  3385  0369  3001               	movlw	1
  3386  036A  00C2               	movwf	??___fldiv
  3387  036B                     u1005:
  3388  036B  1003               	clrc
  3389  036C  0DC7               	rlf	___fldiv@rem,f
  3390  036D  0DC8               	rlf	___fldiv@rem+1,f
  3391  036E  0DC9               	rlf	___fldiv@rem+2,f
  3392  036F  0DCA               	rlf	___fldiv@rem+3,f
  3393  0370  0BC2               	decfsz	??___fldiv,f
  3394  0371  2B6B               	goto	u1005
  3395  0372  3001               	movlw	1
  3396  0373  00C2               	movwf	??___fldiv
  3397  0374                     u1015:
  3398  0374  1003               	clrc
  3399  0375  0DBE               	rlf	___fldiv@b,f
  3400  0376  0DBF               	rlf	___fldiv@b+1,f
  3401  0377  0DC0               	rlf	___fldiv@b+2,f
  3402  0378  0DC1               	rlf	___fldiv@b+3,f
  3403  0379  0BC2               	decfsz	??___fldiv,f
  3404  037A  2B74               	goto	u1015
  3405  037B                     l1317:
  3406  037B  1FD1               	btfss	___fldiv@grs+3,7
  3407  037C  2B7E               	goto	u1021
  3408  037D  2B7F               	goto	u1020
  3409  037E                     u1021:
  3410  037E  2B80               	goto	l1321
  3411  037F                     u1020:
  3412  037F                     l1319:
  3413  037F  143E               	bsf	___fldiv@b,0
  3414  0380                     l1321:
  3415  0380  3001               	movlw	1
  3416  0381  00C2               	movwf	??___fldiv
  3417  0382                     u1035:
  3418  0382  1003               	clrc
  3419  0383  0DCE               	rlf	___fldiv@grs,f
  3420  0384  0DCF               	rlf	___fldiv@grs+1,f
  3421  0385  0DD0               	rlf	___fldiv@grs+2,f
  3422  0386  0DD1               	rlf	___fldiv@grs+3,f
  3423  0387  0BC2               	decfsz	??___fldiv,f
  3424  0388  2B82               	goto	u1035
  3425  0389                     l1323:
  3426  0389  083D               	movf	___fldiv@a+3,w
  3427  038A  024A               	subwf	___fldiv@rem+3,w
  3428  038B  1D03               	skipz
  3429  038C  2B97               	goto	u1045
  3430  038D  083C               	movf	___fldiv@a+2,w
  3431  038E  0249               	subwf	___fldiv@rem+2,w
  3432  038F  1D03               	skipz
  3433  0390  2B97               	goto	u1045
  3434  0391  083B               	movf	___fldiv@a+1,w
  3435  0392  0248               	subwf	___fldiv@rem+1,w
  3436  0393  1D03               	skipz
  3437  0394  2B97               	goto	u1045
  3438  0395  083A               	movf	___fldiv@a,w
  3439  0396  0247               	subwf	___fldiv@rem,w
  3440  0397                     u1045:
  3441  0397  1C03               	skipc
  3442  0398  2B9A               	goto	u1041
  3443  0399  2B9B               	goto	u1040
  3444  039A                     u1041:
  3445  039A  2BAA               	goto	l1329
  3446  039B                     u1040:
  3447  039B                     l1325:
  3448  039B  1751               	bsf	___fldiv@grs+3,6
  3449  039C                     l1327:
  3450  039C  083A               	movf	___fldiv@a,w
  3451  039D  02C7               	subwf	___fldiv@rem,f
  3452  039E  083B               	movf	___fldiv@a+1,w
  3453  039F  1C03               	skipc
  3454  03A0  0F3B               	incfsz	___fldiv@a+1,w
  3455  03A1  02C8               	subwf	___fldiv@rem+1,f
  3456  03A2  083C               	movf	___fldiv@a+2,w
  3457  03A3  1C03               	skipc
  3458  03A4  0F3C               	incfsz	___fldiv@a+2,w
  3459  03A5  02C9               	subwf	___fldiv@rem+2,f
  3460  03A6  083D               	movf	___fldiv@a+3,w
  3461  03A7  1C03               	skipc
  3462  03A8  0F3D               	incfsz	___fldiv@a+3,w
  3463  03A9  02CA               	subwf	___fldiv@rem+3,f
  3464  03AA                     l1329:
  3465  03AA  3001               	movlw	1
  3466  03AB  00C2               	movwf	??___fldiv
  3467  03AC  0842               	movf	??___fldiv,w
  3468  03AD  07D3               	addwf	___fldiv@aexp,f
  3469  03AE                     l1331:
  3470  03AE  301A               	movlw	26
  3471  03AF  0253               	subwf	___fldiv@aexp,w
  3472  03B0  1C03               	skipc
  3473  03B1  2BB3               	goto	u1051
  3474  03B2  2BB4               	goto	u1050
  3475  03B3                     u1051:
  3476  03B3  2B64               	goto	l1313
  3477  03B4                     u1050:
  3478  03B4                     l1333:
  3479  03B4  084A               	movf	___fldiv@rem+3,w
  3480  03B5  0449               	iorwf	___fldiv@rem+2,w
  3481  03B6  0448               	iorwf	___fldiv@rem+1,w
  3482  03B7  0447               	iorwf	___fldiv@rem,w
  3483  03B8  1903               	skipnz
  3484  03B9  2BBB               	goto	u1061
  3485  03BA  2BBC               	goto	u1060
  3486  03BB                     u1061:
  3487  03BB  2BDB               	goto	l1347
  3488  03BC                     u1060:
  3489  03BC                     l1335:
  3490  03BC  144E               	bsf	___fldiv@grs,0
  3491  03BD  2BDB               	goto	l1347
  3492  03BE                     l1337:
  3493  03BE  3001               	movlw	1
  3494  03BF  00C2               	movwf	??___fldiv
  3495  03C0                     u1075:
  3496  03C0  1003               	clrc
  3497  03C1  0DBE               	rlf	___fldiv@b,f
  3498  03C2  0DBF               	rlf	___fldiv@b+1,f
  3499  03C3  0DC0               	rlf	___fldiv@b+2,f
  3500  03C4  0DC1               	rlf	___fldiv@b+3,f
  3501  03C5  0BC2               	decfsz	??___fldiv,f
  3502  03C6  2BC0               	goto	u1075
  3503  03C7                     l1339:
  3504  03C7  1FD1               	btfss	___fldiv@grs+3,7
  3505  03C8  2BCA               	goto	u1081
  3506  03C9  2BCB               	goto	u1080
  3507  03CA                     u1081:
  3508  03CA  2BCC               	goto	l1343
  3509  03CB                     u1080:
  3510  03CB                     l1341:
  3511  03CB  143E               	bsf	___fldiv@b,0
  3512  03CC                     l1343:
  3513  03CC  3001               	movlw	1
  3514  03CD  00C2               	movwf	??___fldiv
  3515  03CE                     u1095:
  3516  03CE  1003               	clrc
  3517  03CF  0DCE               	rlf	___fldiv@grs,f
  3518  03D0  0DCF               	rlf	___fldiv@grs+1,f
  3519  03D1  0DD0               	rlf	___fldiv@grs+2,f
  3520  03D2  0DD1               	rlf	___fldiv@grs+3,f
  3521  03D3  0BC2               	decfsz	??___fldiv,f
  3522  03D4  2BCE               	goto	u1095
  3523  03D5                     l1345:
  3524  03D5  30FF               	movlw	255
  3525  03D6  07CC               	addwf	___fldiv@new_exp,f
  3526  03D7  1803               	skipnc
  3527  03D8  0ACD               	incf	___fldiv@new_exp+1,f
  3528  03D9  30FF               	movlw	255
  3529  03DA  07CD               	addwf	___fldiv@new_exp+1,f
  3530  03DB                     l1347:
  3531  03DB  1FC0               	btfss	___fldiv@b+2,7
  3532  03DC  2BDE               	goto	u1101
  3533  03DD  2BDF               	goto	u1100
  3534  03DE                     u1101:
  3535  03DE  2BBE               	goto	l1337
  3536  03DF                     u1100:
  3537  03DF                     l1349:
  3538  03DF  01D3               	clrf	___fldiv@aexp
  3539  03E0                     l1351:
  3540  03E0  1FD1               	btfss	___fldiv@grs+3,7
  3541  03E1  2BE3               	goto	u1111
  3542  03E2  2BE4               	goto	u1110
  3543  03E3                     u1111:
  3544  03E3  2C00               	goto	l1359
  3545  03E4                     u1110:
  3546  03E4                     l1353:
  3547  03E4  30FF               	movlw	255
  3548  03E5  054E               	andwf	___fldiv@grs,w
  3549  03E6  00C2               	movwf	??___fldiv
  3550  03E7  30FF               	movlw	255
  3551  03E8  054F               	andwf	___fldiv@grs+1,w
  3552  03E9  00C3               	movwf	??___fldiv+1
  3553  03EA  30FF               	movlw	255
  3554  03EB  0550               	andwf	___fldiv@grs+2,w
  3555  03EC  00C4               	movwf	??___fldiv+2
  3556  03ED  307F               	movlw	127
  3557  03EE  0551               	andwf	___fldiv@grs+3,w
  3558  03EF  00C5               	movwf	??___fldiv+3
  3559  03F0  0845               	movf	??___fldiv+3,w
  3560  03F1  0444               	iorwf	??___fldiv+2,w
  3561  03F2  0443               	iorwf	??___fldiv+1,w
  3562  03F3  0442               	iorwf	??___fldiv,w
  3563  03F4  1903               	skipnz
  3564  03F5  2BF7               	goto	u1121
  3565  03F6  2BF8               	goto	u1120
  3566  03F7                     u1121:
  3567  03F7  2BFB               	goto	l596
  3568  03F8                     u1120:
  3569  03F8                     l1355:
  3570  03F8  01D3               	clrf	___fldiv@aexp
  3571  03F9  0AD3               	incf	___fldiv@aexp,f
  3572  03FA  2C00               	goto	l1359
  3573  03FB                     l596:
  3574  03FB  1C3E               	btfss	___fldiv@b,0
  3575  03FC  2BFE               	goto	u1131
  3576  03FD  2BFF               	goto	u1130
  3577  03FE                     u1131:
  3578  03FE  2C00               	goto	l1359
  3579  03FF                     u1130:
  3580  03FF  2BF8               	goto	l1355
  3581  0400                     l1359:
  3582  0400  0853               	movf	___fldiv@aexp,w
  3583  0401  1903               	btfsc	3,2
  3584  0402  2C04               	goto	u1141
  3585  0403  2C05               	goto	u1140
  3586  0404                     u1141:
  3587  0404  2C36               	goto	l1369
  3588  0405                     u1140:
  3589  0405                     l1361:
  3590  0405  3001               	movlw	1
  3591  0406  07BE               	addwf	___fldiv@b,f
  3592  0407  3000               	movlw	0
  3593  0408  1803               	skipnc
  3594  0409  3001               	movlw	1
  3595  040A  07BF               	addwf	___fldiv@b+1,f
  3596  040B  3000               	movlw	0
  3597  040C  1803               	skipnc
  3598  040D  3001               	movlw	1
  3599  040E  07C0               	addwf	___fldiv@b+2,f
  3600  040F  3000               	movlw	0
  3601  0410  1803               	skipnc
  3602  0411  3001               	movlw	1
  3603  0412  07C1               	addwf	___fldiv@b+3,f
  3604  0413                     l1363:
  3605  0413  1C41               	btfss	___fldiv@b+3,0
  3606  0414  2C16               	goto	u1151
  3607  0415  2C17               	goto	u1150
  3608  0416                     u1151:
  3609  0416  2C36               	goto	l1369
  3610  0417                     u1150:
  3611  0417                     l1365:
  3612  0417  083E               	movf	___fldiv@b,w
  3613  0418  00C2               	movwf	??___fldiv
  3614  0419  083F               	movf	___fldiv@b+1,w
  3615  041A  00C3               	movwf	??___fldiv+1
  3616  041B  0840               	movf	___fldiv@b+2,w
  3617  041C  00C4               	movwf	??___fldiv+2
  3618  041D  0841               	movf	___fldiv@b+3,w
  3619  041E  00C5               	movwf	??___fldiv+3
  3620  041F  3001               	movlw	1
  3621  0420  00C6               	movwf	??___fldiv+4
  3622  0421                     u1165:
  3623  0421  0D45               	rlf	??___fldiv+3,w
  3624  0422  0CC5               	rrf	??___fldiv+3,f
  3625  0423  0CC4               	rrf	??___fldiv+2,f
  3626  0424  0CC3               	rrf	??___fldiv+1,f
  3627  0425  0CC2               	rrf	??___fldiv,f
  3628  0426                     u1160:
  3629  0426  0BC6               	decfsz	??___fldiv+4,f
  3630  0427  2C21               	goto	u1165
  3631  0428  0845               	movf	??___fldiv+3,w
  3632  0429  00C1               	movwf	___fldiv@b+3
  3633  042A  0844               	movf	??___fldiv+2,w
  3634  042B  00C0               	movwf	___fldiv@b+2
  3635  042C  0843               	movf	??___fldiv+1,w
  3636  042D  00BF               	movwf	___fldiv@b+1
  3637  042E  0842               	movf	??___fldiv,w
  3638  042F  00BE               	movwf	___fldiv@b
  3639  0430                     l1367:
  3640  0430  3001               	movlw	1
  3641  0431  07CC               	addwf	___fldiv@new_exp,f
  3642  0432  1803               	skipnc
  3643  0433  0ACD               	incf	___fldiv@new_exp+1,f
  3644  0434  3000               	movlw	0
  3645  0435  07CD               	addwf	___fldiv@new_exp+1,f
  3646  0436                     l1369:
  3647  0436  084D               	movf	___fldiv@new_exp+1,w
  3648  0437  3A80               	xorlw	128
  3649  0438  00FF               	movwf	btemp+1
  3650  0439  3080               	movlw	128
  3651  043A  027F               	subwf	btemp+1,w
  3652  043B  1D03               	skipz
  3653  043C  2C3F               	goto	u1175
  3654  043D  30FF               	movlw	255
  3655  043E  024C               	subwf	___fldiv@new_exp,w
  3656  043F                     u1175:
  3657  043F  1C03               	skipc
  3658  0440  2C42               	goto	u1171
  3659  0441  2C43               	goto	u1170
  3660  0442                     u1171:
  3661  0442  2C51               	goto	l1373
  3662  0443                     u1170:
  3663  0443                     l1371:
  3664  0443  30FF               	movlw	255
  3665  0444  1283               	bcf	3,5	;RP0=0, select bank0
  3666  0445  1303               	bcf	3,6	;RP1=0, select bank0
  3667  0446  00CC               	movwf	___fldiv@new_exp
  3668  0447  3000               	movlw	0
  3669  0448  00CD               	movwf	___fldiv@new_exp+1
  3670  0449  3000               	movlw	0
  3671  044A  00C1               	movwf	___fldiv@b+3
  3672  044B  3000               	movlw	0
  3673  044C  00C0               	movwf	___fldiv@b+2
  3674  044D  3000               	movlw	0
  3675  044E  00BF               	movwf	___fldiv@b+1
  3676  044F  3000               	movlw	0
  3677  0450  00BE               	movwf	___fldiv@b
  3678  0451                     l1373:
  3679  0451  1283               	bcf	3,5	;RP0=0, select bank0
  3680  0452  1303               	bcf	3,6	;RP1=0, select bank0
  3681  0453  084D               	movf	___fldiv@new_exp+1,w
  3682  0454  3A80               	xorlw	128
  3683  0455  00FF               	movwf	btemp+1
  3684  0456  3080               	movlw	128
  3685  0457  027F               	subwf	btemp+1,w
  3686  0458  1D03               	skipz
  3687  0459  2C5C               	goto	u1185
  3688  045A  3001               	movlw	1
  3689  045B  024C               	subwf	___fldiv@new_exp,w
  3690  045C                     u1185:
  3691  045C  1803               	skipnc
  3692  045D  2C5F               	goto	u1181
  3693  045E  2C60               	goto	u1180
  3694  045F                     u1181:
  3695  045F  2C6D               	goto	l602
  3696  0460                     u1180:
  3697  0460                     l1375:
  3698  0460  1283               	bcf	3,5	;RP0=0, select bank0
  3699  0461  1303               	bcf	3,6	;RP1=0, select bank0
  3700  0462  01CC               	clrf	___fldiv@new_exp
  3701  0463  01CD               	clrf	___fldiv@new_exp+1
  3702  0464                     l1377:
  3703  0464  3000               	movlw	0
  3704  0465  00C1               	movwf	___fldiv@b+3
  3705  0466  3000               	movlw	0
  3706  0467  00C0               	movwf	___fldiv@b+2
  3707  0468  3000               	movlw	0
  3708  0469  00BF               	movwf	___fldiv@b+1
  3709  046A  3000               	movlw	0
  3710  046B  00BE               	movwf	___fldiv@b
  3711  046C                     l1379:
  3712  046C  01CB               	clrf	___fldiv@sign
  3713  046D                     l602:
  3714  046D  1283               	bcf	3,5	;RP0=0, select bank0
  3715  046E  1303               	bcf	3,6	;RP1=0, select bank0
  3716  046F  084C               	movf	___fldiv@new_exp,w
  3717  0470  00C2               	movwf	??___fldiv
  3718  0471  0842               	movf	??___fldiv,w
  3719  0472  00D2               	movwf	___fldiv@bexp
  3720  0473                     l1381:
  3721  0473  1C52               	btfss	___fldiv@bexp,0
  3722  0474  2C76               	goto	u1191
  3723  0475  2C77               	goto	u1190
  3724  0476                     u1191:
  3725  0476  2C79               	goto	l1385
  3726  0477                     u1190:
  3727  0477                     l1383:
  3728  0477  17C0               	bsf	___fldiv@b+2,7
  3729  0478  2C7D               	goto	l604
  3730  0479                     l1385:
  3731  0479  307F               	movlw	127
  3732  047A  00C2               	movwf	??___fldiv
  3733  047B  0842               	movf	??___fldiv,w
  3734  047C  05C0               	andwf	___fldiv@b+2,f
  3735  047D                     l604:
  3736  047D  0852               	movf	___fldiv@bexp,w
  3737  047E  00C2               	movwf	??___fldiv
  3738  047F  1003               	clrc
  3739  0480  0C42               	rrf	??___fldiv,w
  3740  0481  00C3               	movwf	??___fldiv+1
  3741  0482  0843               	movf	??___fldiv+1,w
  3742  0483  00C1               	movwf	___fldiv@b+3
  3743  0484  084B               	movf	___fldiv@sign,w
  3744  0485  00C2               	movwf	??___fldiv
  3745  0486  0842               	movf	??___fldiv,w
  3746  0487  04C1               	iorwf	___fldiv@b+3,f
  3747  0488  2B21               	goto	l1293
  3748  0489                     l582:
  3749  0489  0008               	return
  3750  048A                     __end_of___fldiv:
  3751                           
  3752                           	psect	text14
  3753  0FC9                     __ptext14:	
  3754 ;; *************** function _ADC_val *****************
  3755 ;; Defined at:
  3756 ;;		line 12 in file "ADC.c"
  3757 ;; Parameters:    Size  Location     Type
  3758 ;;  ADRES_L         1    wreg     unsigned char 
  3759 ;;  ADRES_H         1    0[COMMON] unsigned char 
  3760 ;; Auto vars:     Size  Location     Type
  3761 ;;  ADRES_L         1    0[COMMON] unsigned char 
  3762 ;; Return value:  Size  Location     Type
  3763 ;;                  1    wreg      unsigned char 
  3764 ;; Registers used:
  3765 ;;		wreg
  3766 ;; Tracked objects:
  3767 ;;		On entry : 0/0
  3768 ;;		On exit  : 0/0
  3769 ;;		Unchanged: 0/0
  3770 ;; Data sizes:     COMMON   BANK0   BANK1   BANK3   BANK2
  3771 ;;      Params:         1       0       0       0       0
  3772 ;;      Locals:         0       0       0       0       0
  3773 ;;      Temps:          1       0       0       0       0
  3774 ;;      Totals:         2       0       0       0       0
  3775 ;;Total ram usage:        2 bytes
  3776 ;; Hardware stack levels used:    1
  3777 ;; This function calls:
  3778 ;;		Nothing
  3779 ;; This function is called by:
  3780 ;;		_ADC_CH0
  3781 ;; This function uses a non-reentrant model
  3782 ;;
  3783                           
  3784                           
  3785                           ;psect for function _ADC_val
  3786  0FC9                     _ADC_val:
  3787  0FC9                     l1245:	
  3788                           ;incstack = 0
  3789                           ; Regs used in _ADC_val: [wreg]
  3790                           
  3791                           
  3792                           ;ADC.c: 13:     VALOR_ADC = ((ADRESL << 8) | ADRESH);
  3793  0FC9  1283               	bcf	3,5	;RP0=0, select bank0
  3794  0FCA  1303               	bcf	3,6	;RP1=0, select bank0
  3795  0FCB  081E               	movf	30,w	;volatile
  3796  0FCC  00F1               	movwf	??_ADC_val
  3797  0FCD  0871               	movf	??_ADC_val,w
  3798  0FCE  00E1               	movwf	_VALOR_ADC
  3799                           
  3800                           ;ADC.c: 15:     return VALOR_ADC;
  3801  0FCF  0861               	movf	_VALOR_ADC,w
  3802  0FD0                     l137:
  3803  0FD0  0008               	return
  3804  0FD1                     __end_of_ADC_val:
  3805                           
  3806                           	psect	text15
  3807  001C                     __ptext15:	
  3808 ;; *************** function _ADC_ch *****************
  3809 ;; Defined at:
  3810 ;;		line 18 in file "ADC.c"
  3811 ;; Parameters:    Size  Location     Type
  3812 ;;  channel         2    0[COMMON] unsigned short 
  3813 ;; Auto vars:     Size  Location     Type
  3814 ;;		None
  3815 ;; Return value:  Size  Location     Type
  3816 ;;                  2    0[COMMON] unsigned int 
  3817 ;; Registers used:
  3818 ;;		wreg, fsr0l, fsr0h, status,2, status,0
  3819 ;; Tracked objects:
  3820 ;;		On entry : 0/0
  3821 ;;		On exit  : 0/0
  3822 ;;		Unchanged: 0/0
  3823 ;; Data sizes:     COMMON   BANK0   BANK1   BANK3   BANK2
  3824 ;;      Params:         2       0       0       0       0
  3825 ;;      Locals:         0       0       0       0       0
  3826 ;;      Temps:          0       0       0       0       0
  3827 ;;      Totals:         2       0       0       0       0
  3828 ;;Total ram usage:        2 bytes
  3829 ;; Hardware stack levels used:    1
  3830 ;; This function calls:
  3831 ;;		Nothing
  3832 ;; This function is called by:
  3833 ;;		_ADC_CH0
  3834 ;; This function uses a non-reentrant model
  3835 ;;
  3836                           
  3837                           
  3838                           ;psect for function _ADC_ch
  3839  001C                     _ADC_ch:
  3840  001C                     l1235:	
  3841                           ;incstack = 0
  3842                           ; Regs used in _ADC_ch: [wreg-fsr0h+status,2+status,0]
  3843                           
  3844                           
  3845                           ;ADC.c: 19:      switch (channel) {
  3846  001C  2832               	goto	l1239
  3847  001D                     l141:	
  3848                           ;ADC.c: 20:         case 0:
  3849                           
  3850                           
  3851                           ;ADC.c: 21:             ADCON0bits.CHS3 = 0;
  3852  001D  1283               	bcf	3,5	;RP0=0, select bank0
  3853  001E  1303               	bcf	3,6	;RP1=0, select bank0
  3854  001F  129F               	bcf	31,5	;volatile
  3855                           
  3856                           ;ADC.c: 22:             ADCON0bits.CHS2 = 0;
  3857  0020  121F               	bcf	31,4	;volatile
  3858                           
  3859                           ;ADC.c: 23:             ADCON0bits.CHS1 = 0;
  3860  0021  119F               	bcf	31,3	;volatile
  3861                           
  3862                           ;ADC.c: 24:             ADCON0bits.CHS0 = 0;
  3863  0022  111F               	bcf	31,2	;volatile
  3864                           
  3865                           ;ADC.c: 26:             break;
  3866  0023  283F               	goto	l145
  3867  0024                     l143:	
  3868                           ;ADC.c: 27:         case 1:
  3869                           
  3870                           
  3871                           ;ADC.c: 28:             ADCON0bits.CHS3 = 0;
  3872  0024  1283               	bcf	3,5	;RP0=0, select bank0
  3873  0025  1303               	bcf	3,6	;RP1=0, select bank0
  3874  0026  129F               	bcf	31,5	;volatile
  3875                           
  3876                           ;ADC.c: 29:             ADCON0bits.CHS2 = 0;
  3877  0027  121F               	bcf	31,4	;volatile
  3878                           
  3879                           ;ADC.c: 30:             ADCON0bits.CHS1 = 0;
  3880  0028  119F               	bcf	31,3	;volatile
  3881                           
  3882                           ;ADC.c: 31:             ADCON0bits.CHS0 = 1;
  3883  0029  151F               	bsf	31,2	;volatile
  3884                           
  3885                           ;ADC.c: 32:             break;
  3886  002A  283F               	goto	l145
  3887  002B                     l144:	
  3888                           ;ADC.c: 33:         default:
  3889                           
  3890                           
  3891                           ;ADC.c: 34:             ADCON0bits.CHS3 = 0;
  3892  002B  1283               	bcf	3,5	;RP0=0, select bank0
  3893  002C  1303               	bcf	3,6	;RP1=0, select bank0
  3894  002D  129F               	bcf	31,5	;volatile
  3895                           
  3896                           ;ADC.c: 35:             ADCON0bits.CHS2 = 0;
  3897  002E  121F               	bcf	31,4	;volatile
  3898                           
  3899                           ;ADC.c: 36:             ADCON0bits.CHS1 = 0;
  3900  002F  119F               	bcf	31,3	;volatile
  3901                           
  3902                           ;ADC.c: 37:             ADCON0bits.CHS0 = 0;
  3903  0030  111F               	bcf	31,2	;volatile
  3904                           
  3905                           ;ADC.c: 38:             break;
  3906  0031  283F               	goto	l145
  3907  0032                     l1239:
  3908                           
  3909                           ; Switch on 2 bytes has been partitioned into a top level switch of size 1, and 1 sub-sw
      +                          itches
  3910                           ; Switch size 1, requested type "simple"
  3911                           ; Number of cases is 1, Range of values is 0 to 0
  3912                           ; switch strategies available:
  3913                           ; Name         Instructions Cycles
  3914                           ; simple_byte            4     3 (average)
  3915                           ; direct_byte           11     8 (fixed)
  3916                           ; jumptable            260     6 (fixed)
  3917                           ;	Chosen strategy is simple_byte
  3918  0032  0871               	movf	ADC_ch@channel+1,w
  3919  0033  3A00               	xorlw	0	; case 0
  3920  0034  1903               	skipnz
  3921  0035  2837               	goto	l1653
  3922  0036  282B               	goto	l144
  3923  0037                     l1653:
  3924                           
  3925                           ; Switch size 1, requested type "simple"
  3926                           ; Number of cases is 2, Range of values is 0 to 1
  3927                           ; switch strategies available:
  3928                           ; Name         Instructions Cycles
  3929                           ; simple_byte            7     4 (average)
  3930                           ; direct_byte           14     8 (fixed)
  3931                           ; jumptable            260     6 (fixed)
  3932                           ;	Chosen strategy is simple_byte
  3933  0037  0870               	movf	ADC_ch@channel,w
  3934  0038  3A00               	xorlw	0	; case 0
  3935  0039  1903               	skipnz
  3936  003A  281D               	goto	l141
  3937  003B  3A01               	xorlw	1	; case 1
  3938  003C  1903               	skipnz
  3939  003D  2824               	goto	l143
  3940  003E  282B               	goto	l144
  3941  003F                     l145:
  3942  003F  0008               	return
  3943  0040                     __end_of_ADC_ch:
  3944  007E                     btemp	set	126	;btemp
  3945  007E                     wtemp0	set	126
  3946                           
  3947                           	psect	config
  3948                           
  3949                           ;Config register CONFIG1 @ 0x2007
  3950                           ;	Oscillator Selection bits
  3951                           ;	FOSC = HS, HS oscillator: High-speed crystal/resonator on RA6/OSC2/CLKOUT and RA7/OSC1
      +                          /CLKIN
  3952                           ;	Watchdog Timer Enable bit
  3953                           ;	WDTE = OFF, WDT disabled and can be enabled by SWDTEN bit of the WDTCON register
  3954                           ;	Power-up Timer Enable bit
  3955                           ;	PWRTE = OFF, PWRT disabled
  3956                           ;	RE3/MCLR pin function select bit
  3957                           ;	MCLRE = OFF, RE3/MCLR pin function is digital input, MCLR internally tied to VDD
  3958                           ;	Code Protection bit
  3959                           ;	CP = OFF, Program memory code protection is disabled
  3960                           ;	Data Code Protection bit
  3961                           ;	CPD = OFF, Data memory code protection is disabled
  3962                           ;	Brown Out Reset Selection bits
  3963                           ;	BOREN = ON, BOR enabled
  3964                           ;	Internal External Switchover bit
  3965                           ;	IESO = OFF, Internal/External Switchover mode is disabled
  3966                           ;	Fail-Safe Clock Monitor Enabled bit
  3967                           ;	FCMEN = OFF, Fail-Safe Clock Monitor is disabled
  3968                           ;	Low Voltage Programming Enable bit
  3969                           ;	LVP = OFF, RB3 pin has digital I/O, HV on MCLR must be used for programming
  3970                           ;	In-Circuit Debugger Mode bit
  3971                           ;	DEBUG = 0x1, unprogrammed default
  3972  2007                     	org	8199
  3973  2007  23D2               	dw	9170
  3974                           
  3975                           ;Config register CONFIG2 @ 0x2008
  3976                           ;	Brown-out Reset Selection bit
  3977                           ;	BOR4V = BOR40V, Brown-out Reset set to 4.0V
  3978                           ;	Flash Program Memory Self Write Enable bits
  3979                           ;	WRT = OFF, Write protection off
  3980  2008                     	org	8200
  3981  2008  3FFF               	dw	16383

Data Sizes:
    Strings     12
    Constant    0
    Data        0
    BSS         24
    Persistent  0
    Stack       0

Auto Spaces:
    Space          Size  Autos    Used
    COMMON           14     14      14
    BANK0            80     59      67
    BANK1            80      0      16
    BANK3            96      0       0
    BANK2            96      0       0

Pointer List with Targets:

    Lcd_Write_String@a	PTR unsigned char  size(1) Largest target is 4
		 -> STR_3(CODE[4]), STR_2(CODE[4]), STR_1(CODE[4]), 


Critical Paths under _main in COMMON

    _Lcd_Write_String->_Lcd_Write_Char
    _Lcd_Write_Char->_Lcd_Port
    _Lcd_Set_Cursor->_Lcd_Cmd
    _Lcd_Init->_Lcd_Cmd
    _Lcd_Clear->_Lcd_Cmd
    _Lcd_Cmd->_Lcd_Port
    _ADC_CH0->___xxtofl
    ___flmul->___xxtofl
    ___fldiv->___xxtofl

Critical Paths under _main in BANK0

    _main->_ADC_CH0
    _ADC_CH0->___fldiv
    ___fldiv->___flmul

Critical Paths under _main in BANK1

    None.

Critical Paths under _main in BANK3

    None.

Critical Paths under _main in BANK2

    None.

Call Graph Tables:

 ---------------------------------------------------------------------------------
 (Depth) Function   	        Calls       Base Space   Used Autos Params    Refs
 ---------------------------------------------------------------------------------
 (0) _main                                                 3     3      0    4948
                                             56 BANK0      3     3      0
                            _ADC_CH0
                          _Lcd_Clear
                           _Lcd_Init
                     _Lcd_Set_Cursor
                   _Lcd_Write_String
                              _setup
 ---------------------------------------------------------------------------------
 (1) _setup                                                0     0      0       0
 ---------------------------------------------------------------------------------
 (1) _Lcd_Write_String                                     3     3      0     219
                                              3 COMMON     3     3      0
                     _Lcd_Write_Char
 ---------------------------------------------------------------------------------
 (2) _Lcd_Write_Char                                       2     2      0      30
                                              1 COMMON     2     2      0
                           _Lcd_Port
 ---------------------------------------------------------------------------------
 (1) _Lcd_Set_Cursor                                       4     3      1     392
                                              4 COMMON     4     3      1
                            _Lcd_Cmd
 ---------------------------------------------------------------------------------
 (1) _Lcd_Init                                             2     2      0      45
                                              4 COMMON     2     2      0
                            _Lcd_Cmd
                           _Lcd_Port
 ---------------------------------------------------------------------------------
 (1) _Lcd_Clear                                            0     0      0      30
                            _Lcd_Cmd
 ---------------------------------------------------------------------------------
 (2) _Lcd_Cmd                                              3     3      0      30
                                              1 COMMON     3     3      0
                           _Lcd_Port
 ---------------------------------------------------------------------------------
 (3) _Lcd_Port                                             1     1      0      15
                                              0 COMMON     1     1      0
 ---------------------------------------------------------------------------------
 (1) _ADC_CH0                                              4     4      0    4262
                                             52 BANK0      4     4      0
                             _ADC_ch
                            _ADC_val
                            ___fldiv
                            ___flmul
                           ___xxtofl
 ---------------------------------------------------------------------------------
 (2) ___xxtofl                                            14    10      4     398
                                              0 COMMON    14    10      4
 ---------------------------------------------------------------------------------
 (2) ___flmul                                             26    18      8    2417
                                              0 BANK0     26    18      8
                          __Umul8_16
                           ___xxtofl (ARG)
 ---------------------------------------------------------------------------------
 (3) __Umul8_16                                            9     7      2     799
                                              0 COMMON     9     7      2
 ---------------------------------------------------------------------------------
 (2) ___fldiv                                             26    18      8    1273
                                             26 BANK0     26    18      8
                            ___flmul (ARG)
                           ___xxtofl (ARG)
 ---------------------------------------------------------------------------------
 (2) _ADC_val                                              3     2      1      76
                                              0 COMMON     2     1      1
 ---------------------------------------------------------------------------------
 (2) _ADC_ch                                               2     0      2      98
                                              0 COMMON     2     0      2
 ---------------------------------------------------------------------------------
 Estimated maximum stack depth 3
 ---------------------------------------------------------------------------------

 Call Graph Graphs:

 _main (ROOT)
   _ADC_CH0
     _ADC_ch
     _ADC_val
     ___fldiv
       ___flmul (ARG)
         __Umul8_16
         ___xxtofl (ARG)
       ___xxtofl (ARG)
     ___flmul
       __Umul8_16
       ___xxtofl (ARG)
     ___xxtofl
   _Lcd_Clear
     _Lcd_Cmd
       _Lcd_Port
   _Lcd_Init
     _Lcd_Cmd
       _Lcd_Port
     _Lcd_Port
   _Lcd_Set_Cursor
     _Lcd_Cmd
       _Lcd_Port
   _Lcd_Write_String
     _Lcd_Write_Char
       _Lcd_Port
   _setup

 Address spaces:
Name               Size   Autos  Total    Cost      Usage
BITCOMMON            E      0       0       0        0.0%
EEDATA             100      0       0       0        0.0%
NULL                 0      0       0       0        0.0%
CODE                 0      0       0       0        0.0%
COMMON               E      E       E       1      100.0%
BITSFR0              0      0       0       1        0.0%
SFR0                 0      0       0       1        0.0%
BITSFR1              0      0       0       2        0.0%
SFR1                 0      0       0       2        0.0%
STACK                0      0       0       2        0.0%
ABS                  0      0      61       3        0.0%
BITBANK0            50      0       0       4        0.0%
BITSFR3              0      0       0       4        0.0%
SFR3                 0      0       0       4        0.0%
BANK0               50     3B      43       5       83.8%
BITSFR2              0      0       0       5        0.0%
SFR2                 0      0       0       5        0.0%
BITBANK1            50      0       0       6        0.0%
BANK1               50      0      10       7       20.0%
BITBANK3            60      0       0       8        0.0%
BANK3               60      0       0       9        0.0%
BITBANK2            60      0       0      10        0.0%
BANK2               60      0       0      11        0.0%
DATA                 0      0      61      12        0.0%


Microchip Technology PIC Macro Assembler V2.31 build 20201012212115 
Symbol Table                                                                                   Fri Feb 12 10:54:58 2021

             ___fldiv@aexp 0053               ___fldiv@bexp 0052                          pc 0002  
             ___fldiv@sign 004B                         l83 01F2                         l77 00AE  
                       l94 0FC8                         l97 0FFF                         fsr 0004  
      __Umul8_16@word_mpld 0076                        l100 0FE5                        l112 001B  
                      l106 0063                        l141 001D                        l109 0120  
                      l118 0088                        l143 0024                        l144 002B  
                      l145 003F                        l137 0FD0                        l602 046D  
                      l604 047D                        l620 07EA                        l632 07DE  
                      l641 00D5                        l626 0756                        l580 0309  
                      l582 0489                        l670 025A                        l639 00C3  
                      l664 0215                        l737 0FC4                        l666 02AC  
                      l771 0FF0                        l596 03FB                        l677 0276  
                      l773 0FF3                        l781 0010                        l678 0282  
                      l775 0FFC                        l767 0FE7                        l783 0013  
                      l769 0FEA                        l785 0018                        l777 0007  
                      l779 000A                        _RE0 0048                        _RE1 0049  
                      u900 00D1                        u901 00D0                        u910 02BE  
                      u911 02BD                        u920 02C4                        u921 02C3  
                      u930 02C9                        u931 02C8                        u940 02EB  
                      u941 02EA                        u950 02F1                        u951 02F0  
                      u960 02F6                        u880 00BD                        u961 02F5  
                      u881 00BC                        u970 0311                        u971 0310  
                      u980 032F                        u981 032E                        u990 0369  
                      u991 0368                        u895 00C4            __end_of_ADC_CH0 01F3  
                      fsr0 0004                        indf 0000            __end_of_ADC_val 0FD1  
             ___flmul@aexp 0032               ___flmul@bexp 0033               ___flmul@sign 002D  
             ___flmul@temp 0038               ___flmul@prod 0034                       l1121 00A0  
                     l1113 0089                       l1131 00E5                       l1123 00A7  
                     l1115 008D                       l1221 00B0                       l1133 00F4  
                     l1125 00AB                       l1117 008E                       l1311 0362  
                     l1303 0338                       l1231 00D1                       l1223 00B2  
                     l1135 00FA                       l1127 00D6                       l1119 009D  
                     l1321 0380                       l1313 0364                       l1305 034A  
                     l1225 00B9                       l1401 04A1                       l1137 0FD9  
                     l1129 00DC                       l1235 001C                       l1315 0369  
                     l1323 0389                       l1331 03AE                       l1307 0352  
                     l1251 02B4                       l1227 00BD                       l1411 04BD  
                     l1403 04A6                       l1245 0FC9                       l1341 03CB  
                     l1333 03B4                       l1325 039B                       l1317 037B  
                     l1309 035A                       l1261 02C9                       l1253 02BA  
                     l1229 00CC                       l1501 0760                       l1421 04D2  
                     l1413 04C3                       l1405 04AE                       l1239 0032  
                     l1351 03E0                       l1343 03CC                       l1335 03BC  
                     l1327 039C                       l1319 037F                       l1271 02E1  
                     l1263 02D1                       l1255 02BE                       l1511 079E  
                     l1503 076E                       l1431 04EE                       l1423 04DA  
                     l1415 04C7                       l1407 04B0                       l1361 0405  
                     l1353 03E4                       l1345 03D5                       l1337 03BE  
                     l1329 03AA                       l1281 02F6                       l1273 02E7  
                     l1265 02D2                       l1257 02BF                       l1249 02AD  
                     l1521 07D2                       l1513 07A9                       l1505 0772  
                     l1441 0531                       l1425 04DC                       l1417 04C8  
                     l1409 04B8                       l1601 0190                       l1371 0443  
                     l1363 0413                       l1355 03F8                       l1339 03C7  
                     l1347 03DB                       l1291 031D                       l1283 02FE  
                     l1275 02EB                       l1259 02C4                       l1267 02D4  
                     l1523 07D6                       l1515 07B8                       l1507 078B  
                     l1451 05BA                       l1443 054D                       l1435 04F7  
                     l1427 04E4                       l1419 04CD                       l1531 01F4  
                     l1603 01A1                       l1611 0126                       l1381 0473  
                     l1373 0451                       l1365 0417                       l1349 03DF  
                     l1293 0321                       l1285 02FF                       l1277 02EC  
                     l1269 02DC                       l1525 07D7                       l1517 07C2  
                     l1509 0791                       l1461 062D                       l1453 05CA  
                     l1445 0579                       l1437 0507                       l1429 04E9  
                     l1533 01F9                       l1605 01A3                       l1621 0141  
                     l1613 0129                       l1383 0477                       l1375 0460  
                     l1367 0430                       l1359 0400                       l1279 02F1  
                     l1287 0301                       l1527 07E2                       l1519 07C4  
                     l1471 06DA                       l1463 064A                       l1455 05E7  
                     l1447 0595                       l1439 0514                       l1391 048A  
                     l1551 0243                       l1543 0226                       l1535 01FD  
                     l1607 01EE                       l1631 0174                       l1623 014D  
                     l1615 012E                       l1385 0479                       l1377 0464  
                     l1369 0436                       l1289 0311                       l1297 032A  
                     l1481 0726                       l1473 0702                       l1465 0677  
                     l1457 05F7                       l1449 05B1                       l1393 0491  
                     l1561 027A                       l1553 0251                       l1545 022B  
                     l1537 020D                       l1625 0153                       l1617 0133  
                     l1609 0121                       l1379 046C                       l1299 032F  
                     l1491 073B                       l1483 0727                       l1475 070B  
                     l1467 0687                       l1459 0614                       l1395 0497  
                     l1571 02A4                       l1563 0284                       l1555 0261  
                     l1547 0238                       l1539 021D                       l1627 015F  
                     l1619 013B                       l1653 0037                       l1493 073F  
                     l1485 0730                       l1477 0719                       l1469 06B4  
                     l1397 049B                       l1565 029A                       l1557 026C  
                     l1549 023F                       l1581 0052                       l1629 0165  
                     l1495 0753                       l1479 0722                       l1487 0736  
                     l1399 049C                       l1567 029F                       l1559 0270  
                     l1583 0058                       l1575 0041                       l1591 0075  
                     l1489 073A                       l1569 02A3                       l1585 005D  
                     l1577 0046                       l1593 007B                       l1499 075B  
                     l1595 017D                       l1579 004B                       l1587 0065  
                     l1597 0185                       l1589 0068                       l1599 018C  
                     STR_1 0806                       STR_2 080A                       STR_3 080E  
                     u1100 03DF                       u1020 037F                       u1101 03DE  
                     u1021 037E                       u1005 036B                       u1110 03E4  
                     u1111 03E3                       u1015 0374                       u1120 03F8  
                     u1040 039B                       u1200 049B                       u1121 03F7  
                     u1041 039A                       u1201 049A                       u1130 03FF  
                     u1050 03B4                       u1210 04A1                       u1131 03FE  
                     u1051 03B3                       u1035 0382                       u1211 04A0  
                     u1140 0405                       u1060 03BC                       u1220 04A6  
                     u1141 0404                       u1061 03BB                       u1045 0397  
                     u1301 0587                       u1221 04A5                       u1150 0417  
                     u1302 058E                       u1230 04C7                       u1151 0416  
                     u1311 05A3                       u1303 0595                       u1231 04C6  
                     u1160 0426                       u1080 03CB                       u1312 05AA  
                     u1240 04CD                       u1081 03CA                       u1401 06CC  
                     u1313 05B1                       u1241 04CC                       u1170 0443  
                     u1410 06E8                       u1402 06D3                       u1250 04D2  
                     u1171 0442                       u1075 03C0                       u1403 06DA  
                     u1331 05D9                       u1251 04D1                       u1180 0460  
                     u1500 075A                       u1332 05E0                       u1260 04E9  
                     u1181 045F                       u1165 0421                       u1501 0759  
                     u1421 06F4                       u1341 0606                       u1333 05E7  
                     u1325 05B3                       u1261 04E8                       u1190 0477  
                     u1510 0760                       u1422 06FB                       u1342 060D  
                     u1270 04EE                       u1191 0476                       u1175 043F  
                     u1095 03CE                       u1511 075F                       u1423 0702  
                     u1415 06E3                       u1343 0614                       u1271 04ED  
                     u1520 0772                       u1185 045C                       u1521 0771  
                     u1361 063C                       u1281 053F                       u1530 0781  
                     u1450 0726                       u1362 0643                       u1282 0546  
                     u1610 023E                       u1451 0725                       u1435 0704  
                     u1371 0669                       u1363 064A                       u1355 0616  
                     u1291 055B                       u1283 054D                       u1611 023D  
                     u1540 079E                       u1372 0670                       u1292 0562  
                     u1700 02A3                       u1541 079D                       u1445 071B  
                     u1381 0696                       u1373 0677                       u1293 0569  
                     u1701 02A2                       u1605 0230                       u1550 07B8  
                     u1470 073A                       u1390 06C0                       u1382 069D  
                     u1630 0260                       u1710 0046                       u1551 07B7  
                     u1535 077C                       u1471 0739                       u1383 06A4  
                     u1631 025F                       u1711 0045                       u1560 07D6  
                     u1480 073F                       u1720 0058                       u1561 07D5  
                     u1545 079A                       u1481 073E                       u1465 0729  
                     u1625 0252                       u1721 0057                       u1490 0753  
                     u1650 0270                       u1570 01F9                       u1730 0088  
                     u1555 07B4                       u1491 0752                       u1395 06BB  
                     u1651 026F                       u1571 01F8                       u1731 0087  
                     u1660 0276                       u1580 01FD                       u1740 01F2  
                     u1661 0275                       u1645 0265                       u1581 01FC  
                     u1741 01F1                       u1670 027A                       u1590 021D  
                     u1671 0279                       u1591 021C                       u1807 0FF7  
                     u1680 028F                       u1817 0189                       u1690 029F  
                     u1691 029E                       u1685 028A                       u1757 016D  
                     u1767 0015                       u1777 00E0                       u1787 00EF  
                     u1797 00FE                       _VAL1 005B                       _data 00A0  
        ?_Lcd_Write_String 0070                       _main 0121                       btemp 007E  
                     start 0000         ??_Lcd_Write_String 0073            ___fldiv@new_exp 004C  
          __end_of_Lcd_Cmd 1000                      ?_main 0070            __end_of___fldiv 048A  
          __end_of___flmul 07EB                      _ANSEL 0188                      _PORTA 0005  
                    _PORTB 0006                      _PORTC 0007                      _PORTD 0008  
                    _PORTE 0009    __size_of_Lcd_Set_Cursor 0024                      _TRISA 0085  
                    _TRISB 0086                      _TRISC 0087                      _TRISD 0088  
                    _TRISE 0089                      _setup 0089                      pclath 000A  
                    status 0003                      wtemp0 007E             ADC_val@ADRES_H 0070  
           ADC_val@ADRES_L 0070           __end_of_Lcd_Init 0121           __end_of_Lcd_Port 0FC9  
          __initialization 07EB               __end_of_main 017D                  ??_ADC_CH0 0054  
                ??_ADC_val 0071                     ??_main 0058         __size_of_Lcd_Clear 000D  
                   _ADCON0 001F                     _ADCON1 009F                     _ADRESH 001E  
                   _ADRESL 009E                     _ADC_ch 001C                     ?_setup 0070  
                   _ANSELH 0189                     _INTCON 000B                  ??_Lcd_Cmd 0071  
  __size_of_Lcd_Write_Char 0016           __end_of___xxtofl 02AD                  ??___fldiv 0042  
                ??___flmul 0028         __size_of__Umul8_16 0027            Lcd_Set_Cursor@a 0076  
          Lcd_Set_Cursor@b 0074               ___xxtofl@arg 007A               ___xxtofl@exp 0079  
             ___xxtofl@val 0070    __end_of__initialization 07FC          __end_of_Lcd_Clear 0FE6  
           __pcstackCOMMON 0070              __end_of_setup 00AF             _Lcd_Set_Cursor 0040  
                ?_Lcd_Init 0070                  ?_Lcd_Port 0070                    ?_ADC_ch 0070  
                  ??_setup 0070                 __pbssBANK0 005B                 __pbssBANK1 00A0  
        __end_of__Umul8_16 00D6                 __pmaintext 0121                    _ADC_CH0 017D  
__size_of_Lcd_Write_String 0025     __end_of_Lcd_Set_Cursor 0064                    _ADC_res 0062  
                  _ADC_val 0FC9                  ?___xxtofl 0070                 ??_Lcd_Init 0074  
               ??_Lcd_Port 0070            __size_of_ADC_ch 0024                 __stringtab 0800  
           _Lcd_Write_Char 0006                    _Lcd_Cmd 0FE6                    ___fldiv 02AD  
                  ___flmul 048A                    _channel 005F            ?_Lcd_Set_Cursor 0074  
                  __ptext1 0089                    __ptext2 0064                    __ptext3 0006  
                  __ptext4 0040                    __ptext5 00D6                    __ptext6 0FD9  
                  __ptext7 0FE6                    __ptext8 0FC3                    __ptext9 017D  
               ??___xxtofl 0074                    clrloop0 0FD2     __end_of_Lcd_Write_Char 001C  
     end_of_initialization 07FC                  _VALOR_ADC 0061                  Lcd_Port@a 0070  
            ___xxtofl@sign 0078                ___fldiv@grs 004E                ___fldiv@rem 0047  
          ?_Lcd_Write_Char 0070          Lcd_Write_String@a 0075          Lcd_Write_String@i 0073  
           __end_of_ADC_ch 0040                ___flmul@grs 002E                  _Lcd_Clear 0FD9  
         _Lcd_Write_String 0064        start_initialization 07EB                   ??_ADC_ch 0072  
        __size_of_Lcd_Init 004B          __size_of_Lcd_Port 0006                 ?_Lcd_Clear 0070  
                __Umul8_16 00AF                   ?_ADC_CH0 0070            Lcd_Write_Char@a 0072  
                 ?_ADC_val 0070                  ___fldiv@a 003A                  ___fldiv@b 003E  
                ___flmul@a 0024                  ___flmul@b 0020                  ___latbits 0002  
            __pcstackBANK0 0020          __size_of___xxtofl 00BA                   ?_Lcd_Cmd 0070  
         ??_Lcd_Set_Cursor 0075                   ?___fldiv 003A                   ?___flmul 0020  
               ?__Umul8_16 0070                  __pstrings 0800             __size_of_setup 0026  
                clear_ram0 0FD1                   _PIE1bits 008C                   Lcd_Cmd@a 0073  
                 _PIR1bits 000C                ??_Lcd_Clear 0074           __size_of_ADC_CH0 0076  
               _ADCON0bits 001F                __stringbase 0805           __size_of_ADC_val 0008  
         ??_Lcd_Write_Char 0071                   _Lcd_Init 00D6                   _Lcd_Port 0FC3  
 __end_of_Lcd_Write_String 0089           __size_of_Lcd_Cmd 001A                ??__Umul8_16 0072  
         __size_of___fldiv 01DD           __size_of___flmul 0361         __end_of__stringtab 0806  
                 ___xxtofl 01F3                   __ptext10 01F3                   __ptext11 048A  
                 __ptext12 00AF                   __ptext13 02AD                   __ptext14 0FC9  
                 __ptext15 001C              __size_of_main 005C              ADC_ch@channel 0070  
                stringcode 0800         Lcd_Set_Cursor@temp 0077     __Umul8_16@multiplicand 0070  
               _OPTION_REG 0081                   stringdir 0800                   stringtab 0800  
     __Umul8_16@multiplier 0078          __Umul8_16@product 0074  
